(dp1
I3840301258
(dp2
S'category'
p3
S'sport'
p4
sS'title'
p5
S'Boston Marathon 2017: Kenyans Sweep the Main Events'
p6
sS'url'
p7
S'https://www.nytimes.com/2017/04/17/sports/boston-marathon-2017-kenyans-sweep-the-main-events.html'
p8
sS'source'
p9
S'The New York Times'
p10
sS'score'
p11
F0.94689653811425034
sS'date'
p12
S'201704171229'
p13
ssI3810184387
(dp14
g3
S'entertain'
p15
sg5
S'This Friendly Bear Is a Menace to Ice'
p16
sg7
S'https://www.nytimes.com/2017/04/17/dining/ice-shaver-japanese-bear-moma.html'
p17
sg9
S'The New York Times'
p18
sg11
F0.45153769416062489
sg12
S'201704171331'
p19
ssI3493810174
(dp20
g3
g15
sg5
S'A Tortilla Favored by Chefs Is Now Available Nationwide'
p21
sg7
S'https://www.nytimes.com/2017/04/17/dining/corn-tortillas-masienda.html'
p22
sg9
S'The New York Times'
p23
sg11
F0.53995963514832035
sg12
S'201704171350'
p24
ss.