(dp1
I1260690179
(dp2
S'category'
p3
S'entertain'
p4
sS'title'
p5
S'Vegan Meringues Made From Aquafaba'
p6
sS'url'
p7
S'https://www.nytimes.com/2017/04/17/dining/aquafaba-vegan-meringue-shop.html'
p8
sS'source'
p9
S'The New York Times'
p10
sS'score'
p11
F0.92541616116998127
sS'date'
p12
S'201704171303'
p13
ssI3042457829
(dp14
g3
g4
sg5
S"Andy Karl, the Star of 'Groundhog Day,' Is to Perform on Opening Night"
p15
sg7
S'https://www.nytimes.com/2017/04/17/theater/andy-karl-groundhog-day-to-perform-on-opening-night.html'
p16
sg9
S'The New York Times'
p17
sg11
F0.99599165852248162
sg12
S'201704171344'
p18
ssI4105899692
(dp19
g3
g4
sg5
S"Time to be Honest About the Fear That's Getting in Your Way"
p20
sg7
S'https://www.nytimes.com/2017/04/17/your-money/time-to-be-honest-about-the-fear-thats-getting-in-your-way.html'
p21
sg9
S'The New York Times'
p22
sg11
F0.98326634020066095
sg12
S'201704171339'
p23
ssI2084021837
(dp24
g3
S'world'
p25
sg5
S'The North Korea Paradox: Why There Are No Good Options'
p26
sg7
S'https://www.nytimes.com/2017/04/17/world/asia/north-korea-nuclear-weapons-missiles-sanctions.html'
p27
sg9
S'The New York Times'
p28
sg11
F0.99999608420858266
sg12
S'201704171323'
p29
ssI24491759
(dp30
g3
S'tech'
p31
sg5
S'Tech Roundup: A Busy Week to Come'
p32
sg7
S'https://www.nytimes.com/2017/04/17/technology/facebook-samsung-new-zealand.html'
p33
sg9
S'The New York Times'
p34
sg11
F0.99932101425288911
sg12
S'201704171217'
p35
ssI1213037906
(dp36
g3
g4
sg5
S'An Atlanta Theater Faces Criticism for Gay Versions of Bible Stories'
p37
sg7
S'https://www.nytimes.com/2017/04/17/theater/out-front-theater-company-criticism-for-gay-versions-of-bible-the-most-fabulous-story-ever-told.html'
p38
sg9
S'The New York Times'
p39
sg11
F0.99999324909230614
sg12
S'201704171348'
p40
ssI3770214239
(dp41
g3
g4
sg5
S'Browse Cookbooks in the Lobby of a NoMad Hotel'
p42
sg7
S'https://www.nytimes.com/2017/04/17/dining/kitchen-arts-and-letters-opens-park-south-hotel-nomad.html'
p43
sg9
S'The New York Times'
p44
sg11
F0.88907174332176442
sg12
S'201704171339'
p45
ss.