(dp1
I2733280512
(dp2
S'category'
p3
S'entertain'
p4
sS'title'
p5
S'Red, Ripe and Renegade: Berries That Break All the Rules'
p6
sS'url'
p7
S'https://www.nytimes.com/2017/04/17/dining/strawberries-harrys-berries-california.html'
p8
sS'source'
p9
S'The New York Times'
p10
sS'score'
p11
F0.99999938036588543
sS'date'
p12
S'201704171242'
p13
ssI2943580971
(dp14
g3
g4
sg5
S'Carrot Spirit Adds Verve to Spring Drinks'
p15
sg7
S'https://www.nytimes.com/2017/04/17/dining/boardroom-spirits-carrot-liquor.html'
p16
sg9
S'The New York Times'
p17
sg11
F0.31490384615384603
sg12
S'201704171313'
p18
ssI601167342
(dp19
g3
S'business'
p20
sg5
S'Philanthropy Starts After Profits Are Tallied'
p21
sg7
S'https://www.nytimes.com/2015/05/12/world/americas/philanthropy-starts-after-profits-are-tallied.html'
p22
sg9
S'International New York Times'
p23
sg11
F0.979331777996024
sg12
S'201704171206'
p24
ssI787900305
(dp25
g3
g4
sg5
S"The Chainsmokers Prove They're a Hit on the Album Chart, Too"
p26
sg7
S'https://www.nytimes.com/2017/04/17/arts/music/chainsmokers-memories-billboard-chart.html'
p27
sg9
S'The New York Times'
p28
sg11
F0.95540361873026292
sg12
S'201704171257'
p29
ssI3192594615
(dp30
g3
S'us'
p31
sg5
S'Bitter Fight Behind Him, Justice Gorsuch Starts Day With Relish'
p32
sg7
S'https://www.nytimes.com/2017/04/17/us/politics/justice-neil-gorsuch-supreme-court.html'
p33
sg9
S'The New York Times'
p34
sg11
F0.87701036709364955
sg12
S'201704171319'
p35
ssI911645406
(dp36
g3
S'sport'
p37
sg5
S'Mats Zuccarello Urges Rangers to Show Some Desperation in Game 4'
p38
sg7
S'https://www.nytimes.com/2017/04/17/sports/hockey/rangers-canadiens-nhl-playoffs.html'
p39
sg9
S'The New York Times'
p40
sg11
F1
sg12
S'201704171212'
p41
ssI463561791
(dp42
g3
g20
sg5
S'Interest in Social Mission Gains Ground Among Small Companies'
p43
sg7
S'https://www.nytimes.com/2015/04/24/business/dealbook/interest-in-social-mission-gains-ground-among-small-companies.html'
p44
sg9
S'The New York Times'
p45
sg11
F0.99984468422667494
sg12
S'201704171205'
p46
ss.