(dp1
S'entertain'
p2
(lp3
(I273565944
(F0.77381486918993048
S'201705022000'
p4
ttp5
asS'us'
p6
(lp7
(I3655775922
(F0.92757576087592675
S'201705021437'
p8
ttp9
a(I2957764453
(F0.99996844467334511
S'201704191416'
p10
ttp11
as.