(dp0
S'opinion'
p1
(lp2
(I442823521
(F0.9792075777297224
S'201705021404'
p3
tp4
tp5
a(I4001457914
(F0.6039153021162026
S'201705011029'
p6
tp7
tp8
a(I1186691750
(F0.9782740146731069
S'201705020500'
p9
tp10
tp11
a(I2150582851
(F0.43632482718575416
S'201705021707'
p12
tp13
tp14
a(I2151022840
(F0.8050685380545677
S'201705020530'
p15
tp16
tp17
a(I1822840394
(F0.8224271837400393
S'201705021141'
p18
tp19
tp20
a(I1198451310
(F0.9997943470145002
S'201705010530'
p21
tp22
tp23
a(I1417774251
(F0.5684318235486577
S'201705020928'
p24
tp25
tp26
a(I2499160633
(F0.9384588375539167
S'201705012205'
p27
tp28
tp29
a(I4250657680
(F0.9173540113890716
S'201705011758'
p30
tp31
tp32
asS'entertain'
p33
(lp34
(I273565944
(F0.7738148691899305
S'201705022000'
p35
tp36
tp37
a(I3303125078
(F0.9783092289793935
S'201705021344'
p38
tp39
tp40
a(I3836837493
(F0.5250018547691705
S'201705010740'
p41
tp42
tp43
a(I4098811502
(F0.9409538059292741
S'201705011547'
p44
tp45
tp46
a(I829971515
(F0.9982376053024847
S'201705011423'
p47
tp48
tp49
a(I3345146702
(F0.9998843973129898
S'201705021627'
p50
tp51
tp52
a(I4181444448
(F0.8775281744282308
S'201704301944'
p53
tp54
tp55
a(I636898286
(F0.39067008108101775
S'201705022010'
p56
tp57
tp58
a(I2600675244
(F0.9999999532186348
S'201702250838'
p59
tp60
tp61
a(I3050562149
(F0.994050008844347
S'201705011131'
p62
tp63
tp64
a(I2791729283
(F0.9679147001456618
S'201704261337'
p65
tp66
tp67
a(I301693156
(F0.7705886537061245
S'201705021437'
p68
tp69
tp70
a(I1518744391
(F0.7361942295197974
S'201704301146'
p71
tp72
tp73
a(I2828163746
(F0.5903488790797298
S'201705011254'
p74
tp75
tp76
a(I2213785370
(F0.42184151619687166
S'201705022053'
p77
tp78
tp79
a(I2855011144
(F0.9999999796953605
S'201705022105'
p80
tp81
tp82
a(I3949278794
(F0.9355047701086915
S'201705011245'
p83
tp84
tp85
a(I2873546567
(F0.9999986768465533
S'201705021337'
p86
tp87
tp88
a(I904890048
(F0.9969838263705112
S'201704291319'
p89
tp90
tp91
a(I1601038000
(F0.999991416316453
S'201705011746'
p92
tp93
tp94
a(I1688536685
(F0.960763190239588
S'201705021101'
p95
tp96
tp97
a(I1615231888
(F0.762705938497572
S'201705010838'
p98
tp99
tp100
a(I1825510681
(F0.993026670828606
S'201705011522'
p101
tp102
tp103
a(I2323306456
(F0.764740125278943
S'201704300700'
p104
tp105
tp106
a(I1770536270
(F0.999918559699208
S'201705021816'
p107
tp108
tp109
a(I1441907318
(F0.999968716376066
S'201705020841'
p110
tp111
tp112
a(I3001436679
(F0.8041079460256678
S'201705022135'
p113
tp114
tp115
asS'sport'
p116
(lp117
(I940372202
(F0.9999999642442112
S'201705021656'
p118
tp119
tp120
a(I1773951662
(F1.0
S'201705022105'
p121
tp122
tp123
a(I2587430615
(F0.8313757308987607
S'201401311126'
p124
tp125
tp126
asS'us'
p127
(lp128
(I3655775922
(F0.9275757608759267
S'201705021437'
p129
tp130
tp131
a(I2957764453
(F0.9999684446733451
S'201704191416'
p132
tp133
tp134
a(I2159290596
(F0.9999808850673141
S'201705021934'
p135
tp136
tp137
a(I4021470539
(F0.5249291324608237
S'201704291351'
p138
tp139
tp140
a(I3200918731
(F0.5557174174165121
S'201704240658'
p141
tp142
tp143
a(I2099715300
(F0.8684876651780408
S'201704250844'
p144
tp145
tp146
a(I3288195294
(F0.9812992702711318
S'201705012317'
p147
tp148
tp149
a(I2473698523
(F0.9986075529869627
S'201704221039'
p150
tp151
tp152
a(I1126098333
(F0.7137074264030479
S'201705021533'
p153
tp154
tp155
a(I1896615797
(F0.9336042940500622
S'201705021340'
p156
tp157
tp158
a(I1242909876
(F0.8738442263137364
S'201705020322'
p159
tp160
tp161
a(I1248959205
(F0.7155875656178454
S'201705022026'
p162
tp163
tp164
a(I2033176765
(F0.8583760760709657
S'201611292213'
p165
tp166
tp167
a(I741544020
(F0.7184048379650947
S'201705011643'
p168
tp169
tp170
a(I4240822887
(F0.9874067568731345
S'201705020853'
p171
tp172
tp173
a(I3387084945
(F0.9385838073152706
S'201705021513'
p174
tp175
tp176
a(I2165197261
(F0.9642078287837356
S'201705021940'
p177
tp178
tp179
a(I2192675081
(F0.9918902766602308
S'201705011600'
p180
tp181
tp182
a(I3767036168
(F0.9986874251541589
S'201705021750'
p183
tp184
tp185
a(I1776775523
(F0.9733059787619655
S'201704282004'
p186
tp187
tp188
a(I3108638367
(F0.5356181334912095
S'201705010919'
p189
tp190
tp191
a(I2510498399
(F0.9932032598993842
S'201705021710'
p192
tp193
tp194
a(I1896811782
(F0.9993682620122003
S'201705011414'
p195
tp196
tp197
a(I2881692933
(F0.9907312647491553
S'201705010819'
p198
tp199
tp200
a(I3028853882
(F0.9999943775353622
S'201705021503'
p201
tp202
tp203
a(I1722302305
(F0.9995947660517474
S'201705021915'
p204
tp205
tp206
a(I2187587594
(F0.527316408473328
S'201704261800'
p207
tp208
tp209
a(I1562461613
(F0.9997963047758169
S'201705021535'
p210
tp211
tp212
a(I4190041346
(F0.9965685562503755
S'201705021947'
p213
tp214
tp215
a(I3844822550
(F0.6807435857455786
S'201705021439'
p216
tp217
tp218
a(I1448413472
(F0.9880728584105
S'201705021900'
p219
tp220
tp221
a(I1960603305
(F0.898350782614895
S'201705022057'
p222
tp223
tp224
a(I3958229274
(F0.999890445691148
S'201704211501'
p225
tp226
tp227
a(I1409274708
(F0.6734350478093132
S'201704291842'
p228
tp229
tp230
a(I1591444291
(F0.8408191641191258
S'201705011533'
p231
tp232
tp233
a(I1535327655
(F0.7703295425476919
S'201705010923'
p234
tp235
tp236
a(I2418834772
(F0.9911905916184778
S'201705020951'
p237
tp238
tp239
a(I2192916431
(F0.9974356190195435
S'201612051909'
p240
tp241
tp242
a(I3137755147
(F0.9997561513161438
S'201705022020'
p243
tp244
tp245
a(I1416128271
(F0.9995368906830786
S'201705021728'
p246
tp247
tp248
a(I2561508195
(F0.9042972953542574
S'201705021833'
p249
tp250
tp251
a(I1634774495
(F0.999920506428024
S'201705020702'
p252
tp253
tp254
a(I3504060150
(F0.9660677757912397
S'201704291300'
p255
tp256
tp257
a(I2973707834
(F0.7537487879588323
S'201705021820'
p258
tp259
tp260
a(I332875116
(F0.9958966440400762
S'201705021929'
p261
tp262
tp263
a(I3506142688
(F0.8343948547520323
S'201612051856'
p264
tp265
tp266
a(I1406369255
(F0.9067652066917405
S'201705010947'
p267
tp268
tp269
a(I1582887208
(F0.7901657572983383
S'201611301909'
p270
tp271
tp272
a(I124827931
(F0.5254552732179995
S'201704270522'
p273
tp274
tp275
as.