(dp1
S'world'
p2
(lp3
(I2084021837
(F0.99999608420858266
S'201704171323'
ttp4
a(I242318273
(F0.94401151613987544
S'201704290858'
ttp5
a(I1090020642
(F0.91943108600126544
S'201704250844'
ttp6
a(I241568091
(F0.93318495579380489
S'201704292400'
ttp7
a(I1376517803
(F0.99848259242028303
S'201704290702'
ttp8
a(I1029930310
(F0.99942212329321556
S'201704281706'
ttp9
a(I3939862448
(F0.52797099218871035
S'201704301130'
ttp10
a(I4258474759
(F0.99999982902538465
S'201704281927'
ttp11
a(I530429137
(F0.99997181707048355
S'201704282434'
ttp12
a(I3731419172
(F0.99999994865129471
S'201704300649'
ttp13
a(I3471868884
(F0.74465522838023612
S'201704291042'
ttp14
a(I276076845
(F0.75860058325726099
S'201704280734'
ttp15
a(I3736710710
(F0.92176194590785465
S'201704281630'
ttp16
a(I2339283172
(F0.98747306595643825
S'201704301009'
ttp17
a(I3434467797
(F0.99999104641873704
S'201704291246'
ttp18
a(I2014140857
(F0.99623244425248281
S'201704301345'
ttp19
a(I2214158403
(F0.99999875763618185
S'201704300420'
ttp20
a(I12411949
(F0.93018469407144377
S'201704300614'
ttp21
a(I713122068
(F0.87057295922094202
S'201704302422'
ttp22
a(I2699043676
(F0.99999895364025126
S'201704301026'
ttp23
a(I3755331303
(F0.99978225846065172
S'201704131056'
ttp24
a(I4113477841
(F0.9997259402005052
S'201704300900'
ttp25
a(I524255745
(F0.99946728662284789
S'201704140841'
ttp26
a(I147769087
(F0.9379602163330496
S'201704301658'
ttp27
a(I3841575310
(F0.99998354751335172
S'201704301136'
ttp28
a(I1337536751
(F0.99691848797611349
S'201704301005'
ttp29
a(I3584541970
(F0.9931460518891192
S'201704301545'
ttp30
asS'business'
p31
(lp32
(I463561791
(F0.99984468422667494
S'201704171205'
ttp33
a(I601167342
(F0.979331777996024
S'201704171206'
ttp34
a(I335618998
(F0.80443852136947824
S'201704292458'
ttp35
a(I3318191813
(F0.99980583110924759
S'201704280929'
ttp36
a(I629454659
(F0.99999964089580173
S'201704280726'
ttp37
a(I3934490991
(F0.96204112565752098
S'201704282408'
ttp38
a(I3674291726
(F0.64697594825708926
S'201704281023'
ttp39
a(I67805040
(F0.99854598796793415
S'201704281521'
ttp40
a(I513883126
(F0.99497504945429338
S'201704272201'
ttp41
as.