(dp0
S'tech'
p1
(lp2
(I3343895343
(F0.701904087319659
S'201705021401'
p3
tp4
tp5
a(I2759479057
(F0.8914927917769772
S'201705021137'
p6
tp7
tp8
a(I1332390456
(F0.9671578088844447
S'201705021810'
p9
tp10
tp11
a(I473673740
(F0.6963820691824613
S'201704121347'
p12
tp13
tp14
a(I1061883944
(F0.914948337562504
S'201704281152'
p15
tp16
tp17
as.