(dp0
S'world'
p1
(lp2
(I1515453636
(F0.9887943177231325
S'201705021606'
p3
tp4
tp5
a(I1595456341
(F0.5779669701117535
S'201705021151'
p6
tp7
tp8
a(I1222222638
(F0.9999441688593984
S'201705021914'
p9
tp10
tp11
a(I1042902525
(F0.9999977135885832
S'201705020851'
p12
tp13
tp14
a(I3057778609
(F0.6559985212808682
S'201705010611'
p15
tp16
tp17
a(I4142775359
(F0.9855657944867581
S'201705011225'
p18
tp19
tp20
a(I1721203391
(F0.9996714526690627
S'201705021640'
p21
tp22
tp23
a(I1579197953
(F0.9973513416624921
S'201705021726'
p24
tp25
tp26
a(I3768568099
(F0.9999987189813131
S'201704302359'
p27
tp28
tp29
a(I1996888510
(F0.9616636962060283
S'201705021915'
p30
tp31
tp32
a(I2042867051
(F0.9982377467952492
S'201705021507'
p33
tp34
tp35
a(I4046577834
(F0.9998374751417645
S'201705022044'
p36
tp37
tp38
a(I1276957082
(F0.6385656670465788
S'201705022108'
p39
tp40
tp41
a(I2949177086
(F0.9999857839009499
S'201705021229'
p42
tp43
tp44
a(I3806214581
(F0.9881541497644445
S'201705021314'
p45
tp46
tp47
a(I154715030
(F0.9710896582172432
S'201705021031'
p48
tp49
tp50
a(I1183369232
(F0.9433079505921496
S'201705021822'
p51
tp52
tp53
a(I3165825084
(F0.9938076106207029
S'201705022110'
p54
tp55
tp56
a(I2899402531
(F0.5072264963411083
S'201705021938'
p57
tp58
tp59
a(I1364592173
(F0.6185539901051504
S'201705021706'
p60
tp61
tp62
a(I584408588
(F0.9999739604036157
S'201705020404'
p63
tp64
tp65
a(I2791912169
(F0.9998594141339039
S'201705011147'
p66
tp67
tp68
a(I2194698231
(F0.9986150133799799
S'201705011554'
p69
tp70
tp71
a(I3418143472
(F0.8693222079058011
S'201705022124'
p72
tp73
tp74
a(I1996952229
(F0.9998127244035917
S'201705022206'
p75
tp76
tp77
asS'business'
p78
(lp79
(I1703851619
(F0.9969719355380166
S'201705022001'
p80
tp81
tp82
a(I2995229021
(F0.9997638988274401
S'201705020816'
p83
tp84
tp85
a(I1659762474
(F0.9998356633823804
S'201705011454'
p86
tp87
tp88
a(I1866472807
(F0.9994021240791909
S'201705020733'
p89
tp90
tp91
a(I1827213957
(F0.6322137444065256
S'201705021152'
p92
tp93
tp94
a(I373455277
(F0.9999999752018883
S'201705022054'
p95
tp96
tp97
a(I2447558840
(F0.9987290048834556
S'201705021340'
p98
tp99
tp100
as.