(dp1
S'opinion'
p2
(lp3
(I3493863956
(F0.5647092751056253
S'201704300142'
ttp4
a(I3681798615
(F0.53302157212032142
S'201704300736'
ttp5
a(I928934681
(F0.81326620785050341
S'201704281417'
p6
ttp7
asS'entertain'
p8
(lp9
(I3042457829
(F0.99599165852248162
S'201704171344'
ttp10
a(I1260690179
(F0.92541616116998127
S'201704171303'
ttp11
a(I2943580971
(F0.31490384615384603
S'201704171313'
ttp12
a(I787900305
(F0.95540361873026292
S'201704171257'
ttp13
a(I3493810174
(F0.53995963514832035
S'201704171350'
ttp14
a(I3810184387
(F0.45153769416062489
S'201704171331'
ttp15
a(I3770214239
(F0.88907174332176442
S'201704171339'
ttp16
a(I1213037906
(F0.99999324909230614
S'201704171348'
ttp17
a(I2733280512
(F0.99999938036588543
S'201704171242'
ttp18
a(I4105899692
(F0.98326634020066095
S'201704171339'
ttp19
asS'sport'
p20
(lp21
(I3840301258
(F0.94689653811425034
S'201704171229'
ttp22
a(I911645406
(F1
S'201704171212'
ttp23
asS'us'
p24
(lp25
(I4085131671
(F0.5424509461781063
S'201704290030'
ttp26
a(I688752077
(F0.58691015054353091
S'201704301629'
ttp27
a(I608864832
(F0.97372329231280841
S'201704291138'
ttp28
a(I1529685267
(F0.39008803946064646
S'201704300002'
ttp29
a(I2957764453
(F0.99996844467334511
S'201704191416'
ttp30
a(I2187587594
(F0.52731640847332795
S'201704261800'
ttp31
a(I550578452
(F0.99999879120502178
S'201704291547'
ttp32
a(I165330711
(F0.65058764136960856
S'201704301600'
ttp33
a(I2095327061
(F0.74600388279564245
S'201704270500'
ttp34
a(I3192594615
(F0.87701036709364955
S'201704171319'
ttp35
a(I1894586432
(F0.53806555766566089
S'201704301617'
ttp36
a(I615702282
(F0.99987969125689724
S'201704260828'
ttp37
a(I2691399972
(F0.97692067883953282
S'201704301448'
ttp38
as.