(dp1
S'world'
p2
(lp3
(I147769087
(F0.9379602163330496
S'201704301658'
ttp4
a(I3841575310
(F0.99998354751335172
S'201704301136'
ttp5
a(I1337536751
(F0.99691848797611349
S'201704301005'
ttp6
a(I2084021837
(F0.99999608420858266
S'201704171323'
ttp7
a(I3584541970
(F0.9931460518891192
S'201704301545'
ttp8
asS'business'
p9
(lp10
(I463561791
(F0.99984468422667494
S'201704171205'
ttp11
a(I601167342
(F0.979331777996024
S'201704171206'
ttp12
as.