(dp1
S'opinion'
p2
(lp3
(I3205077521
(F0.96868523438106713
S'201704290824'
ttp4
a(I1653443546
(F0.49542961614088027
S'201704271612'
ttp5
a(I757889484
(F0.97419687871101357
S'201704291311'
ttp6
a(I4217956968
(F0.59847414541795796
S'201704291558'
ttp7
a(I4263714553
(F0.75549606475822428
S'201704290855'
ttp8
a(I1155144019
(F0.80138593470639297
S'201704280852'
ttp9
a(I1725786597
(F0.93707101069986221
S'201704261921'
ttp10
a(I2834823222
(F0.98211245463075214
S'201704301157'
ttp11
a(I2195620627
(F0.91511057452294509
S'201704301102'
ttp12
a(I3860065593
(F0.99868941703531577
S'201704270944'
ttp13
a(I3489464232
(F0.47197895374012971
S'201704290638'
ttp14
a(I3373713978
(F0.78427497263801982
S'201704272157'
ttp15
a(I3076667728
(F0.94439699724831017
S'201704301043'
ttp16
a(I2442655764
(F0.58467777328165593
S'201704292358'
ttp17
a(I3493863956
(F0.5647092751056253
S'201704300142'
ttp18
a(I3681798615
(F0.53302157212032142
S'201704300736'
ttp19
a(I928934681
(F0.81326620785050341
S'201704281417'
ttp20
asS'entertain'
p21
(lp22
(I3042457829
(F0.99599165852248162
S'201704171344'
ttp23
a(I1260690179
(F0.92541616116998127
S'201704171303'
ttp24
a(I2943580971
(F0.31490384615384603
S'201704171313'
ttp25
a(I787900305
(F0.95540361873026292
S'201704171257'
ttp26
a(I3493810174
(F0.53995963514832035
S'201704171350'
ttp27
a(I3810184387
(F0.45153769416062489
S'201704171331'
ttp28
a(I3770214239
(F0.88907174332176442
S'201704171339'
ttp29
a(I1213037906
(F0.99999324909230614
S'201704171348'
ttp30
a(I2733280512
(F0.99999938036588543
S'201704171242'
ttp31
a(I4105899692
(F0.98326634020066095
S'201704171339'
ttp32
a(I2030980409
(F0.99990277073283229
S'201704280951'
ttp33
a(I49342957
(F0.99996137160840426
S'201704271833'
ttp34
a(I2089268381
(F0.9666217272285389
S'201704290149'
ttp35
a(I2323306456
(F0.76474012527894297
S'201704300700'
ttp36
a(I3235666846
(F0.99999999463278755
S'201704270844'
ttp37
a(I1810253327
(F0.93382978897741398
S'201704262436'
ttp38
a(I1094305837
(F0.93293652586183706
S'201704292408'
ttp39
a(I2298726122
(F0.9999992203780349
S'201704291623'
ttp40
a(I904890048
(F0.99698382637051119
S'201704291319'
ttp41
a(I3978772976
(F0.83523595703948239
S'201704281347'
ttp42
a(I1479674815
(F0.99466738795336562
S'201704281129'
ttp43
a(I4275482306
(F0.99825061997575237
S'201704270307'
ttp44
a(I2730224759
(F0.9999999935781716
S'201704260837'
ttp45
a(I2809455708
(F0.67339041539600542
S'201704271049'
ttp46
a(I2950688006
(F0.98806685987365561
S'201704271033'
ttp47
a(I2497809885
(F0.40370074958074226
S'201704261316'
ttp48
a(I1257331411
(F0.8634324492698835
S'201704272441'
ttp49
a(I1165246448
(F0.99999993370551232
S'201704282453'
ttp50
a(I2383423835
(F0.93261222656319087
S'201704281149'
ttp51
a(I3661527544
(F0.99999637297189081
S'201704260835'
ttp52
a(I2841038782
(F0.4841791052937453
S'201704291957'
ttp53
a(I4154246784
(F0.97945909705086387
S'201704261451'
ttp54
a(I4156926548
(F0.99999999821778829
S'201704271516'
ttp55
a(I1208862474
(F0.42451481334572067
S'201704271732'
ttp56
a(I2791729283
(F0.99622238769756521
S'201704261337'
ttp57
a(I3890922327
(F0.94602990513545482
S'201704261545'
ttp58
a(I36699184
(F0.99999998581091643
S'201704282424'
ttp59
a(I383916780
(F0.98800229118637484
S'201704301048'
ttp60
a(I1518744391
(F0.73619422951979741
S'201704301146'
ttp61
a(I365620594
(F0.99791504494733707
S'201704281904'
ttp62
a(I1043877485
(F0.99938084286763129
S'201704281710'
ttp63
a(I1447734293
(F0.99997480457073717
S'201704271341'
ttp64
asS'sport'
p65
(lp66
(I3840301258
(F0.94689653811425034
S'201704171229'
ttp67
a(I911645406
(F1
S'201704171212'
ttp68
a(I509756004
(F0.98084815111620094
S'201704261918'
ttp69
a(I2587430615
(F0.83137573089876071
S'201401311126'
ttp70
asS'us'
p71
(lp72
(I3192594615
(F0.87701036709364955
S'201704171319'
ttp73
a(I218598435
(F0.99970263075313559
S'201704290917'
ttp74
a(I2371922239
(F0.99048938976954037
S'201704291747'
ttp75
a(I4021470539
(F0.52492913246082373
S'201704291351'
ttp76
a(I1409274708
(F0.67343504780931318
S'201704291842'
ttp77
a(I1118829858
(F0.95702502576765291
S'201704301148'
ttp78
a(I2099715300
(F0.98116086638987077
S'201704250844'
ttp79
a(I2164087214
(F0.92824288095159235
S'201704272128'
ttp80
a(I4095784861
(F0.86646023139172557
S'201704262000'
ttp81
a(I4182934880
(F0.90342769011993274
S'201704262238'
ttp82
a(I934531136
(F0.93323246965668361
S'201704280840'
ttp83
a(I2086103354
(F0.87039345203000151
S'201704281622'
ttp84
a(I2526017188
(F0.74870000833701944
S'201704291327'
ttp85
a(I4181444448
(F0.42880934403910032
S'201704302454'
ttp86
a(I124827931
(F0.52545527321799945
S'201704270522'
ttp87
a(I3632916449
(F0.54979857731878223
S'201704282059'
ttp88
a(I3837949856
(F0.91207760147203443
S'201704182236'
ttp89
a(I1406369255
(F0.90676520669174054
S'201704262239'
ttp90
a(I517342923
(F0.99909478629873505
S'201704271931'
ttp91
a(I2044378424
(F0.90495492302941472
S'201704291516'
ttp92
a(I961402508
(F0.75181712806789947
S'201704272451'
ttp93
a(I3913309382
(F0.4575283265185347
S'201704290903'
ttp94
a(I2295105371
(F0.99426247637604759
S'201704272323'
ttp95
a(I3024523978
(F0.99999985699310967
S'201704272407'
ttp96
a(I189389475
(F0.9906215478257856
S'201704262337'
ttp97
a(I3504060150
(F0.9660677757912397
S'201704291300'
ttp98
a(I4085131671
(F0.5424509461781063
S'201704290030'
ttp99
a(I688752077
(F0.58691015054353091
S'201704301629'
ttp100
a(I608864832
(F0.97372329231280841
S'201704291138'
ttp101
a(I1529685267
(F0.39008803946064646
S'201704300002'
ttp102
a(I2957764453
(F0.99996844467334511
S'201704191416'
ttp103
a(I2187587594
(F0.52731640847332795
S'201704261800'
ttp104
a(I550578452
(F0.99999879120502178
S'201704291547'
ttp105
a(I165330711
(F0.65058764136960856
S'201704301600'
ttp106
a(I2095327061
(F0.74600388279564245
S'201704270500'
ttp107
a(I1894586432
(F0.53806555766566089
S'201704301617'
ttp108
a(I615702282
(F0.99987969125689724
S'201704260828'
ttp109
a(I2691399972
(F0.97692067883953282
S'201704301448'
ttp110
as.