(dp1
I4258474759
(dp2
S'category'
p3
S'world'
p4
sS'title'
p5
S'Friendly Fire May Have Led to Deaths of 2 U.S. Army Rangers in Afghanistan - NBC News'
p6
sS'url'
p7
S'http://www.nbcnews.com/storyline/isis-terror/friendly-fire-may-have-led-deaths-2-u-s-army-n752566'
p8
sS'source'
p9
S'NBC'
p10
sS'score'
p11
F0.99999982902538465
sS'date'
p12
S'201704281927'
p13
ssI3126388750
(dp14
g3
S'tech'
p15
sg5
S'Can Hacking the Planet Stop Runaway Climate Change? - NBC News'
p16
sg7
S'http://www.nbcnews.com/mach/environment/can-hacking-planet-stop-runaway-climate-change-n752221'
p17
sg9
g10
sg11
F0.93917716041787724
sg12
S'201704281331'
p18
ssI12411949
(dp19
g3
g4
sg5
S'Trump Invites Philippine President Duterte to Washington: White House - NBC News'
p20
sg7
S'http://www.nbcnews.com/news/world/trump-invites-philippines-president-duterte-washington-white-house-n752951'
p21
sg9
g10
sg11
F0.93018469407144377
sg12
S'201704300614'
p22
ssI3584541970
(dp23
S'category'
p24
S'world'
p25
sS'title'
p26
S'Trump invites controversial Philippines leader Duterte to White House | Fox News'
p27
sS'url'
p28
S'http://www.foxnews.com/politics/2017/04/30/trump-invites-controversial-philippines-leader-duterte-to-white-house.html'
p29
sS'source'
p30
S'FOX'
p31
sS'score'
p32
F0.9931460518891192
sS'date'
p33
S'201704301545'
p34
ssI2195620627
(dp35
g3
S'opinion'
p36
sg5
S"Pence: Tax Plan Could Increase Deficit 'Maybe in The Short Term' - NBC News"
p37
sg7
S'http://www.nbcnews.com/politics/congress/pence-tax-plan-could-increase-deficit-maybe-short-term-n752976'
p38
sg9
g10
sg11
F0.91511057452294509
sg12
S'201704301102'
p39
ssI124827931
(dp40
g3
S'us'
p41
sg5
S"Mexico's 'Hillary Clinton' Rips Trump Over 'Useless' Wall - NBC News"
p42
sg7
S'http://www.nbcnews.com/storyline/democrats-vs-trump/mexico-s-hillary-clinton-rips-trump-over-useless-wall-n751666'
p43
sg9
g10
sg11
F0.52545527321799945
sg12
S'201704270522'
p44
ssI4095784861
(dp45
g3
g41
sg5
S'Drugged Driving on Rise, Passes Alcohol Alone in Fatal Crashes, Study Finds - NBC News'
p46
sg7
S'http://www.nbcnews.com/news/us-news/drugged-driving-rise-passes-alcohol-alone-fatal-crashes-study-finds-n751681'
p47
sg9
g10
sg11
F0.86646023139172557
sg12
S'201704262000'
p48
ssI3235666846
(dp49
g3
S'entertain'
p50
sg5
S'Award-Winning Novelist Rakesh Satyal Visits Midwest Culture in Second Novel - NBC News'
p51
sg7
S'http://www.nbcnews.com/news/asian-america/award-winning-novelist-rakesh-satyal-visits-midwest-culture-second-novel-n750671'
p52
sg9
g10
sg11
F0.99999999463278755
sg12
S'201704270844'
p53
ssI2526017188
(dp54
g3
g41
sg5
S'The L.A. Riots as Told Through Rap and Hip-Hop - NBC News'
p55
sg7
S'http://www.nbcnews.com/news/nbcblk/l-riots-told-through-rap-hip-hop-n751896'
p56
sg9
g10
sg11
F0.74870000833701944
sg12
S'201704291327'
p57
ssI1094305837
(dp58
g3
g50
sg5
S"Boxing's First Billionaire? Meet the Heavyweight Champ Who Could Do It - NBC News"
p59
sg7
S'http://www.nbcnews.com/news/sports/boxing-s-first-billionaire-meet-heavyweight-champ-who-could-do-n752411'
p60
sg9
g10
sg11
F0.93293652586183706
sg12
S'201704292408'
p61
ssI36699184
(dp62
g3
g50
sg5
S"'Sleight' Star Jacob Latimore Navigates Crime Underworld in Sci-Fi Thriller    - NBC News"
p63
sg7
S'http://www.nbcnews.com/news/nbcblk/sleight-star-jacob-latimore-navigates-crime-underworld-sci-fi-thriller-n750326'
p64
sg9
g10
sg11
F0.99999998581091643
sg12
S'201704282424'
p65
ssI335618998
(dp66
g3
S'business'
p67
sg5
S'Bullying Is Driving LGBTQ People Out of Tech, Study Finds - NBC News'
p68
sg7
S'http://www.nbcnews.com/feature/nbc-out/bullying-driving-lgbtq-people-out-tech-study-finds-n752646'
p69
sg9
g10
sg11
F0.80443852136947824
sg12
S'201704292458'
p70
ssI3840301258
(dp71
S'category'
p72
S'sport'
p73
sS'title'
p74
S'Boston Marathon 2017: Kenyans Sweep the Main Events'
p75
sS'url'
p76
S'https://www.nytimes.com/2017/04/17/sports/boston-marathon-2017-kenyans-sweep-the-main-events.html'
p77
sS'source'
p78
S'The New York Times'
p79
sS'score'
p80
F0.94689653811425034
sS'date'
p81
S'201704171229'
p82
ssI2841038782
(dp83
g3
g50
sg5
S"Plan Samantha Bee: Late Night Comedian Hosts Alternative 'Nerd Prom'  - NBC News"
p84
sg7
S'http://www.nbcnews.com/news/us-news/plan-samantha-bee-late-night-comedian-hosts-alternative-nerd-prom-n752871'
p85
sg9
g10
sg11
F0.4841791052937453
sg12
S'201704291957'
p86
ssI1479674815
(dp87
g3
g50
sg5
S"A Good Night's Sleep Could Help You Lose Weight - NBC News"
p88
sg7
S'http://www.nbcnews.com/better/diet-fitness/good-night-s-sleep-could-help-you-lose-weight-n752151'
p89
sg9
g10
sg11
F0.99466738795336562
sg12
S'201704281129'
p90
ssI3810184387
(dp91
g72
S'entertain'
p92
sg74
S'This Friendly Bear Is a Menace to Ice'
p93
sg76
S'https://www.nytimes.com/2017/04/17/dining/ice-shaver-japanese-bear-moma.html'
p94
sg78
S'The New York Times'
p95
sg80
F0.45153769416062489
sg81
S'201704171331'
p96
ssI1029930310
(dp97
g3
g4
sg5
S'Facebook Groups Raise Over $100,000 to Help Gay Men in Chechnya - NBC News'
p98
sg7
S'http://www.nbcnews.com/feature/nbc-out/facebook-groups-raise-over-100-000-help-gay-men-chechnya-n752586'
p99
sg9
g10
sg11
F0.99942212329321556
sg12
S'201704281706'
p100
ssI1518744391
(dp101
g3
g50
sg5
S'Taking Care of Aging Parents: The Legal and Financial Details You Need to Know - NBC News'
p102
sg7
S'http://www.nbcnews.com/business/personal-finance/taking-care-aging-parents-legal-financial-details-you-need-know-n752486'
p103
sg9
g10
sg11
F0.73619422951979741
sg12
S'201704301146'
p104
ssI3024523978
(dp105
g3
g41
sg5
S"Texas House Approves Strict 'Sanctuary City' Ban With Tough Jail Penalty - NBC News"
p106
sg7
S'http://www.nbcnews.com/news/latino/texas-house-approves-strict-sanctuary-city-ban-tough-jail-penalty-n751891'
p107
sg9
g10
sg11
F0.99999985699310967
sg12
S'201704272407'
p108
ssI3076667728
(dp109
g3
g36
sg5
S'Trump Tax Plan Could Save His Voters Money, But Cuts Will Follow - NBC News'
p110
sg7
S'http://www.nbcnews.com/politics/first-read/trump-tax-plan-could-save-his-voters-money-cuts-will-n752956'
p111
sg9
g10
sg11
F0.94439699724831017
sg12
S'201704301043'
p112
ssI530429137
(dp113
g3
g4
sg5
S"Le Pen's Father 'Shocked' by Funeral Tribute for Slain Gay Policeman - NBC News"
p114
sg7
S'http://www.nbcnews.com/feature/nbc-out/le-pen-s-father-shocked-funeral-tribute-slain-gay-policeman-n752426'
p115
sg9
g10
sg11
F0.99997181707048355
sg12
S'201704282434'
p116
ssI1257331411
(dp117
g3
g50
sg5
S"'I'm Gay': It's Been 20 Years Since Ellen Came Out on TV - NBC News"
p118
sg7
S'http://www.nbcnews.com/feature/nbc-out/i-m-gay-it-s-been-20-years-ellen-came-n751861'
p119
sg9
g10
sg11
F0.8634324492698835
sg12
S'201704272441'
p120
ssI3841575310
(dp121
g24
g25
sg26
S'McMaster says US must be prepared for military operations in North Korea | Fox News'
p122
sg28
S'http://www.foxnews.com/politics/2017/04/30/mcmaster-says-us-must-be-prepared-for-military-operations-in-north-korea.html'
p123
sg30
g31
sg32
F0.99998354751335172
sg33
S'201704301136'
p124
ssI2323306456
(dp125
g3
g50
sg5
S'5 Myths About Quitting Sugar, Debunked - NBC News'
p126
sg7
S'http://www.nbcnews.com/better/diet-fitness/5-myths-about-quitting-sugar-debunked-n749391'
p127
sg9
g10
sg11
F0.76474012527894297
sg12
S'201704300700'
p128
ssI2699043676
(dp129
g3
g4
sg5
S'Turkey Expels 3,900 Officials in Second Post-Referendum Purge - NBC News'
p130
sg7
S'http://www.nbcnews.com/news/world/turkey-expels-3-900-officials-second-post-referendum-purge-n752961'
p131
sg9
g10
sg11
F0.99999895364025126
sg12
S'201704301026'
p132
ssI2339283172
(dp133
g3
g4
sg5
S"No Shark Cull: Why Some Surfers Don't Want to Kill Great Whites Despite Lethal Attacks  - NBC News"
p134
sg7
S'http://www.nbcnews.com/news/world/no-shark-cull-why-some-surfers-don-t-want-kill-n748141'
p135
sg9
g10
sg11
F0.98747306595643825
sg12
S'201704301009'
p136
ssI2957764453
(dp137
g24
S'us'
p138
sg26
S"FBI's Awlaki surveillance footage revealed | Fox News"
p139
sg28
S'http://www.foxnews.com/politics/2017/04/19/fbis-awlaki-surveillance-footage-revealed.html'
p140
sg30
g31
sg32
F0.99996844467334511
sg33
S'201704191416'
p141
ssI4113477841
(dp142
g3
g4
sg5
S'U.S. Service Member Killed in Mosul, Iraq: Pentagon - NBC News'
p143
sg7
S'http://www.nbcnews.com/storyline/isis-terror/u-s-service-member-killed-mosul-iraq-pentagon-n752966'
p144
sg9
g10
sg11
F0.9997259402005052
sg12
S'201704300900'
p145
ssI49342957
(dp146
g3
g50
sg5
S"20 Years Later, Dateline's Keith Morrison Reflects on Covering Gianni Versace's Murder - NBC News"
p147
sg7
S'http://www.nbcnews.com/dateline/20-years-later-dateline-s-keith-morrison-reflects-covering-gianni-n751856'
p148
sg9
g10
sg11
F0.99996137160840426
sg12
S'201704271833'
p149
ssI365620594
(dp150
g3
g50
sg5
S"Tribeca Film Festival 2017: 'AfroFeminism' and Electrodes Collide With VR - NBC News"
p151
sg7
S'http://www.nbcnews.com/news/nbcblk/tribeca-film-festival-2017-afrofeminism-electrodes-collide-vr-n751611'
p152
sg9
g10
sg11
F0.99791504494733707
sg12
S'201704281904'
p153
ssI1155144019
(dp154
g3
g36
sg5
S'Discrimination Can Have Negative Effects on Physical, Mental Health: Expert - NBC News'
p155
sg7
S'http://www.nbcnews.com/news/asian-america/discrimination-can-have-negative-effects-physical-mental-health-expert-n742506'
p156
sg9
g10
sg11
F0.80138593470639297
sg12
S'201704280852'
p157
ssI513883126
(dp158
g3
g67
sg5
S'Wells Fargo Account Scam Targeted Undocumented Immigrants, Lawsuit Claims - NBC News'
p159
sg7
S'http://www.nbcnews.com/business/business-news/wells-fargo-account-scam-targeted-illegal-immigrants-claims-lawsuit-n752206'
p160
sg9
g10
sg11
F0.99497504945429338
sg12
S'201704272201'
p161
ssI3661527544
(dp162
g3
g50
sg5
S"Mexican-American Chef Marcela Valladolid Invites Us Home in New Cookbook, 'Casa Marcela'   - NBC News"
p163
sg7
S'http://www.nbcnews.com/news/latino/mexican-american-chef-marcela-valladolid-invites-us-home-new-cookbook-n750776'
p164
sg9
g10
sg11
F0.99999637297189081
sg12
S'201704260835'
p165
ssI4263714553
(dp166
g3
g36
sg5
S'For Consumers, Trump A Mixed Bag Of Gains And Fears - NBC News'
p167
sg7
S'http://www.nbcnews.com/business/consumer/consumers-trump-mixed-bag-gains-fears-n752816'
p168
sg9
g10
sg11
F0.75549606475822428
sg12
S'201704290855'
p169
ssI2371922239
(dp170
g3
g41
sg5
S"Arkansas Gov. Hutchinson on Executions: 'I Absolutely Made the Right Decision' - NBC News"
p171
sg7
S'http://www.nbcnews.com/storyline/lethal-injection/arkansas-gov-hutchinson-executions-i-absolutely-made-right-decision-n752791'
p172
sg9
g10
sg11
F0.99048938976954037
sg12
S'201704291747'
p173
ssI3493810174
(dp174
g72
g92
sg74
S'A Tortilla Favored by Chefs Is Now Available Nationwide'
p175
sg76
S'https://www.nytimes.com/2017/04/17/dining/corn-tortillas-masienda.html'
p176
sg78
S'The New York Times'
p177
sg80
F0.53995963514832035
sg81
S'201704171350'
p178
ssI147769087
(dp179
g24
g25
sg26
S"Bill in Congress would pressure Palestinian gov't to cut off terror-tied payments | Fox News"
p180
sg28
S'http://www.foxnews.com/politics/2017/04/30/bill-in-congress-would-pressure-palestinian-govt-to-cut-off-terror-tied-payments.html'
p181
sg30
g31
sg32
F0.9379602163330496
sg33
S'201704301658'
p182
ss.