(dp1
I934531136
(dp2
S'category'
p3
S'us'
p4
sS'title'
p5
S"First Asian-American Woman on Philadelphia City Council Wins Emily's List Award - NBC News"
p6
sS'url'
p7
S'http://www.nbcnews.com/news/asian-america/first-asian-american-woman-philadelphia-city-council-wins-emily-s-n752226'
p8
sS'source'
p9
S'NBC'
p10
sS'score'
p11
F0.93323246965668361
sS'date'
p12
S'201704280840'
p13
ssI1260690179
(dp14
S'category'
p15
S'entertain'
p16
sS'title'
p17
S'Vegan Meringues Made From Aquafaba'
p18
sS'url'
p19
S'https://www.nytimes.com/2017/04/17/dining/aquafaba-vegan-meringue-shop.html'
p20
sS'source'
p21
S'The New York Times'
p22
sS'score'
p23
F0.92541616116998127
sS'date'
p24
S'201704171303'
p25
ssI2950688006
(dp26
g3
S'entertain'
p27
sg5
S'How to Argue With Your Significant Other - NBC News'
p28
sg7
S'http://www.nbcnews.com/better/relationships/how-argue-your-significant-other-n751491'
p29
sg9
g10
sg11
F0.98806685987365561
sg12
S'201704271033'
p30
ssI2187587594
(dp31
S'category'
p32
S'us'
p33
sS'title'
p34
S"Fox News Poll: President Trump's first 100 days getting mixed reviews | Fox News"
p35
sS'url'
p36
S'http://www.foxnews.com/politics/2017/04/26/fox-news-poll-president-trumps-first-100-days-getting-mixed-reviews.html'
p37
sS'source'
p38
S'FOX'
p39
sS'score'
p40
F0.52731640847332795
sS'date'
p41
S'201704261800'
p42
ssI961402508
(dp43
g3
g4
sg5
S"Puerto Rico Officials Slam Trump for Tweets On Island 'Bailout'        - NBC News"
p44
sg7
S'http://www.nbcnews.com/news/latino/puerto-rico-officials-slam-trump-tweets-island-bailout-n751886'
p45
sg9
g10
sg11
F0.75181712806789947
sg12
S'201704272451'
p46
ssI3674291726
(dp47
g3
S'business'
p48
sg5
S'NAFTA Whiplash Could Hurt American Economic Interests - NBC News'
p49
sg7
S'http://www.nbcnews.com/business/business-news/nafta-whiplash-could-hurt-american-economic-interests-n752431'
p50
sg9
g10
sg11
F0.64697594825708926
sg12
S'201704281023'
p51
ssI1810253327
(dp52
g3
g27
sg5
S'Bill Cosby Says He Yearns to Get Back on Stage, After Trial - NBC News'
p53
sg7
S'http://www.nbcnews.com/storyline/bill-cosby-scandal/bill-cosby-says-he-yearns-get-back-stage-after-trial-n751311'
p54
sg9
g10
sg11
F0.93382978897741398
sg12
S'201704262436'
p55
ssI3205077521
(dp56
g3
S'opinion'
p57
sg5
S'After 100 Days, Auto Industry Still Confused About Where Trump Is Heading - NBC News'
p58
sg7
S'http://www.nbcnews.com/storyline/president-trumps-first-100-days/after-100-days-auto-industry-still-confused-about-where-trump-n752476'
p59
sg9
g10
sg11
F0.96868523438106713
sg12
S'201704290824'
p60
ssI2791729283
(dp61
g3
g27
sg5
S"Ross Butler Is Hollywood's Leading Man Waiting in the Wings - NBC News"
p62
sg7
S'http://www.nbcnews.com/news/asian-america/ross-butler-hollywood-s-leading-man-waiting-wings-n751081'
p63
sg9
g10
sg11
F0.99622238769756521
sg12
S'201704261337'
p64
ssI550578452
(dp65
g32
g33
sg34
S'Hill Republicans appear closer to passing ObamaCare overhaul, but not close enough | Fox News'
p66
sg36
S'http://www.foxnews.com/politics/2017/04/29/hill-republicans-appear-closer-to-passing-obamacare-overhaul-but-not-close-enough.html'
p67
sg38
g39
sg40
F0.99999879120502178
sg41
S'201704291547'
p68
ssI1447734293
(dp69
g3
g27
sg5
S'Why You Should Be Spending More Time Alone - NBC News'
p70
sg7
S'http://www.nbcnews.com/better/wellness/why-you-should-spend-more-time-alone-n750966'
p71
sg9
g10
sg11
F0.99997480457073717
sg12
S'201704271341'
p72
ssI928934681
(dp73
g32
S'opinion'
p74
sg34
S"Trump's 100-day cram session | Fox News"
p75
sg36
S'http://www.foxnews.com/politics/2017/04/28/trumps-100-day-cram-session.html'
p76
sg38
g39
sg40
F0.81326620785050341
sg41
S'201704281417'
p77
ssI24491759
(dp78
g15
S'tech'
p79
sg17
S'Tech Roundup: A Busy Week to Come'
p80
sg19
S'https://www.nytimes.com/2017/04/17/technology/facebook-samsung-new-zealand.html'
p81
sg21
S'The New York Times'
p82
sg23
F0.99932101425288911
sg24
S'201704171217'
p83
ssI2089268381
(dp84
g3
g27
sg5
S'25 Years After the LA Riots: A Doctor Inspiring America - NBC News'
p85
sg7
S'http://www.nbcnews.com/news/nbcblk/25-years-after-riots-doctor-inspiring-america-n752451'
p86
sg9
g10
sg11
F0.9666217272285389
sg12
S'201704290149'
p87
ssI3837949856
(dp88
g3
g4
sg5
S'Ohio Man Pleads Guilty to Urging Killings of U.S. Service Members - NBC News'
p89
sg7
S'http://www.nbcnews.com/storyline/isis-terror/ohio-man-pleads-guilty-urging-killings-u-s-service-members-n748081'
p90
sg9
g10
sg11
F0.91207760147203443
sg12
S'201704182236'
p91
ssI1165246448
(dp92
g3
g27
sg5
S'Immigration, Crisis in Venezuela, and Music All Took Center Stage At Latin Billboards Awards Show - NBC News'
p93
sg7
S'http://www.nbcnews.com/news/latino/immigration-crisis-venezuela-music-all-took-center-stage-latin-billboards-n752541'
p94
sg9
g10
sg11
F0.99999993370551232
sg12
S'201704282453'
p95
ssI2295105371
(dp96
g3
g4
sg5
S"Senate Confirms Alex Acosta as Trump's Secretary of Labor - NBC News"
p97
sg7
S'http://www.nbcnews.com/politics/white-house/senate-confirms-alex-acosta-trump-s-secretary-labor-n752301'
p98
sg9
g10
sg11
F0.99426247637604759
sg12
S'201704272323'
p99
ssI3731419172
(dp100
g3
S'world'
p101
sg5
S'Marine Le Pen: Far-Right Scion Who Could Become First Female French President - NBC News'
p102
sg7
S'http://www.nbcnews.com/news/world/marine-le-pen-far-right-scion-who-could-become-first-n751786'
p103
sg9
g10
sg11
F0.99999994865129471
sg12
S'201704300649'
p104
ssI1061883944
(dp105
g3
S'tech'
p106
sg5
S"Finding Signs of Alien Life Might Be Harder Than We Thought. Here's Why - NBC News"
p107
sg7
S'http://www.nbcnews.com/storyline/the-big-questions/finding-signs-alien-life-might-be-harder-we-thought-here-n752491'
p108
sg9
g10
sg11
F0.99238286583935909
sg12
S'201704281152'
p109
ssI1376517803
(dp110
g3
g101
sg5
S"Emmanuel Macron: The 'Knight' Whose Job It Is To Slay France's Far-Right Party - NBC News"
p111
sg7
S'http://www.nbcnews.com/news/world/emmanuel-macron-knight-whose-job-it-slay-france-s-far-n750576'
p112
sg9
g10
sg11
F0.99848259242028303
sg12
S'201704290702'
p113
ssI4105899692
(dp114
g15
g16
sg17
S"Time to be Honest About the Fear That's Getting in Your Way"
p115
sg19
S'https://www.nytimes.com/2017/04/17/your-money/time-to-be-honest-about-the-fear-thats-getting-in-your-way.html'
p116
sg21
S'The New York Times'
p117
sg23
F0.98326634020066095
sg24
S'201704171339'
p118
ssI2164087214
(dp119
g3
g4
sg5
S"Congressional Black Caucus to Highlight Trump Admin's Racial Problems With #StayWoke Campaign - NBC News"
p120
sg7
S'http://www.nbcnews.com/storyline/president-trumps-first-100-days/congressional-black-caucus-highlight-trump-admin-s-racial-problems-staywoke-n752266'
p121
sg9
g10
sg11
F0.92824288095159235
sg12
S'201704272128'
p122
ssI3939862448
(dp123
g3
g101
sg5
S'Famous Swiss Climber Ueli Steck Killed Near Mount Everest in Nepal  - NBC News'
p124
sg7
S'http://www.nbcnews.com/news/world/famous-swiss-climber-ueli-steck-killed-near-mount-everest-nepal-n752996'
p125
sg9
g10
sg11
F0.52797099218871035
sg12
S'201704301130'
p126
ssI3736710710
(dp127
g3
g101
sg5
S'Mystery Illness Kills 11 in Liberia One Year After End of Ebola Outbreak - NBC News'
p128
sg7
S'http://www.nbcnews.com/news/world/mystery-illness-kills-11-liberia-one-year-after-end-ebola-n752666'
p129
sg9
g10
sg11
F0.92176194590785465
sg12
S'201704281630'
p130
ssI2044378424
(dp131
g3
g4
sg5
S"People's Climate March Spurs Thousands to Descend on the White House - NBC News"
p132
sg7
S'http://www.nbcnews.com/news/us-news/people-s-climate-march-spurs-thousands-descend-white-house-n752861'
p133
sg9
g10
sg11
F0.90495492302941472
sg12
S'201704291516'
p134
ssI2030980409
(dp135
g3
g27
sg5
S'14 Latino Art Shows Not to Miss in 2017 - NBC News'
p136
sg7
S'http://www.nbcnews.com/news/latino/14-latino-art-shows-not-miss-2017-n751366'
p137
sg9
g10
sg11
F0.99990277073283229
sg12
S'201704280951'
p138
ssI2086103354
(dp139
g3
g4
sg5
S"'Gaycation' Special Zeroes in on LGBTQ Rights in Trump's America  - NBC News"
p140
sg7
S'http://www.nbcnews.com/feature/nbc-out/gaycation-special-zeroes-lgbtq-rights-trump-s-america-n752076'
p141
sg9
g10
sg11
F0.87039345203000151
sg12
S'201704281622'
p142
ssI1894586432
(dp143
g32
g33
sg34
S'Report: Sebastian Gorka to accept role outside White House | Fox News'
p144
sg36
S'http://www.foxnews.com/politics/2017/04/30/report-sebastian-gorka-to-accept-role-outside-white-house.html'
p145
sg38
g39
sg40
F0.53806555766566089
sg41
S'201704301617'
p146
ssI242318273
(dp147
g3
g101
sg5
S'Data Dive: @RealDonaldTrump Over 100 Days - NBC News'
p148
sg7
S'http://www.nbcnews.com/storyline/president-trumps-first-100-days/100-days-realdonaldtrump-data-dive-n752751'
p149
sg9
g10
sg11
F0.94401151613987544
sg12
S'201704290858'
p150
ssI4275482306
(dp151
g3
g27
sg5
S"'Graphic, Raw, Disturbing': Oscar-Winning Directors Offer New Take on LA Riots  - NBC News"
p152
sg7
S'http://www.nbcnews.com/news/nbcblk/graphic-raw-disturbing-oscar-winning-directors-offer-new-take-la-n750111'
p153
sg9
g10
sg11
F0.99825061997575237
sg12
S'201704270307'
p154
ssI629454659
(dp155
g3
g48
sg5
S'Is Fiat Chrysler About to Sell Off Jeep and Ram?  - NBC News'
p156
sg7
S'http://www.nbcnews.com/business/autos/fiat-chrysler-about-sell-jeep-ram-n752361'
p157
sg9
g10
sg11
F0.99999964089580173
sg12
S'201704280726'
p158
ssI3318191813
(dp159
g3
g48
sg5
S'Consumer Spending Is at Its Slowest Pace Since 2009 - NBC News'
p160
sg7
S'http://www.nbcnews.com/business/economy/consumer-spending-its-slowest-pace-2009-n752401'
p161
sg9
g10
sg11
F0.99980583110924759
sg12
S'201704280929'
p162
ssI3913309382
(dp163
g3
g4
sg5
S"'Saturday Night Live' and Donald Trump: 100 Funny Days - NBC News"
p164
sg7
S'http://www.nbcnews.com/storyline/president-trumps-first-100-days/saturday-night-live-donald-trump-100-funny-days-n752241'
p165
sg9
g10
sg11
F0.4575283265185347
sg12
S'201704290903'
p166
ssI4021470539
(dp167
g3
g4
sg5
S'25 Years Since Rodney King Riots: Race, Rebellion and Rebirth in South L.A. - NBC News'
p168
sg7
S'http://www.nbcnews.com/news/us-news/ballad-south-l-race-rebellion-rebirth-n751471'
p169
sg9
g10
sg11
F0.52492913246082373
sg12
S'201704291351'
p170
ssI2084021837
(dp171
g15
S'world'
p172
sg17
S'The North Korea Paradox: Why There Are No Good Options'
p173
sg19
S'https://www.nytimes.com/2017/04/17/world/asia/north-korea-nuclear-weapons-missiles-sanctions.html'
p174
sg21
S'The New York Times'
p175
sg23
F0.99999608420858266
sg24
S'201704171323'
p176
ssI688752077
(dp177
g32
g33
sg34
S"Capitol Hill lawmakers finding common ground on $1 trillion plan to keep gov't open | Fox News"
p178
sg36
S'http://www.foxnews.com/politics/2017/04/30/capitol-hill-lawmakers-finding-common-ground-on-1-trillion-plan-to-keep-govt-open.html'
p179
sg38
g39
sg40
F0.58691015054353091
sg41
S'201704301629'
p180
ssI1213037906
(dp181
g15
g16
sg17
S'An Atlanta Theater Faces Criticism for Gay Versions of Bible Stories'
p182
sg19
S'https://www.nytimes.com/2017/04/17/theater/out-front-theater-company-criticism-for-gay-versions-of-bible-the-most-fabulous-story-ever-told.html'
p183
sg21
S'The New York Times'
p184
sg23
F0.99999324909230614
sg24
S'201704171348'
p185
ssI4156926548
(dp186
g3
g27
sg5
S"Review: 'Below Her Mouth' Is a Romance-Fueled Fantasy for Queer Women - NBC News"
p187
sg7
S'http://www.nbcnews.com/feature/nbc-out/review-below-her-mouth-romance-fueled-fantasy-queer-women-n752016'
p188
sg9
g10
sg11
F0.99999999821778829
sg12
S'201704271516'
p189
ssI2095327061
(dp190
g32
g33
sg34
S'Insulting Ivanka: Why the media are turning on the first daughter | Fox News'
p191
sg36
S'http://www.foxnews.com/politics/2017/04/27/insulting-ivanka-why-media-are-turning-on-first-daughter.html'
p192
sg38
g39
sg40
F0.74600388279564245
sg41
S'201704270500'
p193
ssI2587430615
(dp194
g3
S'sport'
p195
sg5
S'NBC Affiliates - NBC News'
p196
sg7
S'http://www.nbcnews.com/news/us-news/nbc-affiliates-n19981'
p197
sg9
g10
sg11
F0.83137573089876071
sg12
S'201401311126'
p198
ssI1653443546
(dp199
g3
g57
sg5
S'AI Predicts Heart Attacks Better Than Doctors - NBC News'
p200
sg7
S'http://www.nbcnews.com/mach/science/ai-predicts-heart-attacks-better-doctors-n752011'
p201
sg9
g10
sg11
F0.49542961614088027
sg12
S'201704271612'
p202
ssI2383423835
(dp203
g3
g27
sg5
S"Japan's First Transgender Male Politician Vows to Fight for Trans Kids - NBC News"
p204
sg7
S'http://www.nbcnews.com/feature/nbc-out/japan-s-first-transgender-male-politician-vows-fight-trans-kids-n752481'
p205
sg9
g10
sg11
F0.93261222656319087
sg12
S'201704281149'
p206
ssI2014140857
(dp207
g3
g101
sg5
S'Eight Dead, Dozens Hurt After Tornadoes Hit Texas, South - NBC News'
p208
sg7
S'http://www.nbcnews.com/news/weather/over-50-hurt-after-tornadoes-hit-east-texas-n752926'
p209
sg9
g10
sg11
F0.99623244425248281
sg12
S'201704301345'
p210
ssI3770214239
(dp211
g15
g16
sg17
S'Browse Cookbooks in the Lobby of a NoMad Hotel'
p212
sg19
S'https://www.nytimes.com/2017/04/17/dining/kitchen-arts-and-letters-opens-park-south-hotel-nomad.html'
p213
sg21
S'The New York Times'
p214
sg23
F0.88907174332176442
sg24
S'201704171339'
p215
ssI4182934880
(dp216
g3
g4
sg5
S'Federal Prison Inmates Used Dark Web, Cellphones to Swap Child Porn - NBC News'
p217
sg7
S'http://www.nbcnews.com/news/us-news/federal-prison-inmates-used-dark-web-cellphones-swap-child-porn-n751386'
p218
sg9
g10
sg11
F0.90342769011993274
sg12
S'201704262238'
p219
ssI3632916449
(dp220
g3
g4
sg5
S"Nonprofit Honors '40 Under 40' Asian Americans and Pacific Islanders in Politics - NBC News"
p221
sg7
S'http://www.nbcnews.com/news/asian-america/nonprofit-honors-40-under-40-asian-americans-pacific-islanders-politics-n752166'
p222
sg9
g10
sg11
F0.54979857731878223
sg12
S'201704282059'
p223
ssI3042457829
(dp224
g15
g16
sg17
S"Andy Karl, the Star of 'Groundhog Day,' Is to Perform on Opening Night"
p225
sg19
S'https://www.nytimes.com/2017/04/17/theater/andy-karl-groundhog-day-to-perform-on-opening-night.html'
p226
sg21
S'The New York Times'
p227
sg23
F0.99599165852248162
sg24
S'201704171344'
p228
ssI1406369255
(dp229
g3
g4
sg5
S'Paint Shop Owner Juan Carlos Enriquez Took On Trump - and Won - NBC News'
p230
sg7
S'http://www.nbcnews.com/news/us-news/paint-shop-owner-juan-carlos-enriquez-took-trump-won-n747756'
p231
sg9
g10
sg11
F0.90676520669174054
sg12
S'201704262239'
p232
ssI2298726122
(dp233
g3
g27
sg5
S'Edel Rodriguez: Weaponized Cover Art, Viral Dissent - NBC News'
p234
sg7
S'http://www.nbcnews.com/storyline/president-trumps-first-100-days/edel-rodriguez-time-der-spiegel-cover-illustrator-n752381'
p235
sg9
g10
sg11
F0.9999992203780349
sg12
S'201704291623'
p236
ssI1043877485
(dp237
g3
g27
sg5
S'Whole Foods CEO Shares His Secret for Weight Loss and Lasting Health - NBC News'
p238
sg7
S'http://www.nbcnews.com/better/diet-fitness/whole-foods-ceo-shares-his-secret-weight-loss-success-n752496'
p239
sg9
g10
sg11
F0.99938084286763129
sg12
S'201704281710'
p240
ssI1337536751
(dp241
g32
S'world'
p242
sg34
S'McMaster says US will pay for THAAD anti-missile system in South Korea | Fox News'
p243
sg36
S'http://www.foxnews.com/politics/2017/04/30/mcmaster-says-us-will-pay-for-thaad-anti-missile-system-in-south-korea.html'
p244
sg38
g39
sg40
F0.99691848797611349
sg41
S'201704301005'
p245
ssI3978772976
(dp246
g3
g27
sg5
S"Fyre Festival 'Postponed' Amid Reports of 'Chaos' in the Bahamas - NBC News"
p247
sg7
S'http://www.nbcnews.com/pop-culture/music/fyre-festival-postponed-amid-reports-chaos-bahamas-n752561'
p248
sg9
g10
sg11
F0.83523595703948239
sg12
S'201704281347'
p249
ssI2730224759
(dp250
g3
g27
sg5
S"'Here Lies Love'  Revival Traces Rise, Fall of Philippines' Infamous First Lady - NBC News"
p251
sg7
S'http://www.nbcnews.com/news/asian-america/here-lies-love-revival-traces-rise-fall-philippines-infamous-first-n748856'
p252
sg9
g10
sg11
F0.9999999935781716
sg12
S'201704260837'
p253
ssI3493863956
(dp254
g32
g74
sg34
S"Host blasts absent Trump at White House Correspondents' Dinner | Fox News"
p255
sg36
S'http://www.foxnews.com/politics/2017/04/30/host-blasts-absent-trump-at-white-house-correspondents-dinner.html'
p256
sg38
g39
sg40
F0.5647092751056253
sg41
S'201704300142'
p257
ss.