(dp1
I608864832
(dp2
S'category'
p3
S'us'
p4
sS'title'
p5
S'Energy regulator vacancies put $10 billion in pipeline projects in limbo | Fox News'
p6
sS'url'
p7
S'http://www.foxnews.com/politics/2017/04/29/energy-regulator-vacancies-put-10-billion-in-pipeline-projects-in-limbo.html'
p8
sS'source'
p9
S'FOX'
p10
sS'score'
p11
F0.97372329231280841
sS'date'
p12
S'2017-04-29T11:38:00.000-04:00'
p13
ssI2733280512
(dp14
g3
S'entertain'
p15
sg5
S'Red, Ripe and Renegade: Berries That Break All the Rules'
p16
sg7
S'https://www.nytimes.com/2017/04/17/dining/strawberries-harrys-berries-california.html'
p17
sg9
S'The New York Times'
p18
sg11
F0.99999938036588543
sg12
S'2017-04-17T12:42:41-04:00'
p19
ssI4085131671
(dp20
g3
g4
sg5
S'100 Days of Disruption: How Trump rewrote the presidential script | Fox News'
p21
sg7
S'http://www.foxnews.com/politics/2017/04/29/100-days-disruption-how-trump-rewrote-presidential-script.html'
p22
sg9
g10
sg11
F0.5424509461781063
sg12
S'2017-04-29T00:30:00.000-04:00'
p23
ssI3681798615
(dp24
g3
S'opinion'
p25
sg5
S"Trump skips Correspondents Dinner, but media's bias can't be ignored | Fox News"
p26
sg7
S'http://www.foxnews.com/opinion/2017/04/30/trump-skips-correspondents-dinner-but-medias-bias-cant-be-ignored.html'
p27
sg9
g10
sg11
F0.53302157212032142
sg12
S'2017-04-30T07:36:00.000-04:00'
p28
ssI615702282
(dp29
g3
g4
sg5
S"Shutdown Showdown: What we know and what we don't know | Fox News"
p30
sg7
S'http://www.foxnews.com/politics/2017/04/26/shutdown-showdown-what-know-and-what-dont-know.html'
p31
sg9
g10
sg11
F0.99987969125689724
sg12
S'2017-04-26T08:28:00.000-04:00'
p32
ssI2943580971
(dp33
g3
g15
sg5
S'Carrot Spirit Adds Verve to Spring Drinks'
p34
sg7
S'https://www.nytimes.com/2017/04/17/dining/boardroom-spirits-carrot-liquor.html'
p35
sg9
S'The New York Times'
p36
sg11
F0.31490384615384603
sg12
S'2017-04-17T13:13:39-04:00'
p37
ssI601167342
(dp38
g3
S'business'
p39
sg5
S'Philanthropy Starts After Profits Are Tallied'
p40
sg7
S'https://www.nytimes.com/2015/05/12/world/americas/philanthropy-starts-after-profits-are-tallied.html'
p41
sg9
S'International New York Times'
p42
sg11
F0.979331777996024
sg12
S'2017-04-17T12:06:10-04:00'
p43
ssI787900305
(dp44
g3
g15
sg5
S"The Chainsmokers Prove They're a Hit on the Album Chart, Too"
p45
sg7
S'https://www.nytimes.com/2017/04/17/arts/music/chainsmokers-memories-billboard-chart.html'
p46
sg9
S'The New York Times'
p47
sg11
F0.95540361873026292
sg12
S'2017-04-17T12:57:14-04:00'
p48
ssI1529685267
(dp49
g3
g4
sg5
S'EPA scrubs climate change information from website | Fox News'
p50
sg7
S'http://www.foxnews.com/politics/2017/04/30/epa-scrubs-climate-change-information-from-website.html'
p51
sg9
g10
sg11
F0.39008803946064646
sg12
S'2017-04-30T00:02:00.000-04:00'
p52
ssI165330711
(dp53
g3
g4
sg5
S'Ilena Ros-Lehtinen: Longtime Florida rep to retire from Congress | Fox News'
p54
sg7
S'http://www.foxnews.com/politics/2017/04/30/ilena-ros-lehtinen-longtime-florida-rep-to-retire-from-congress.html'
p55
sg9
g10
sg11
F0.65058764136960856
sg12
S'2017-04-30T16:00:00.000-04:00'
p56
ssI2691399972
(dp57
g3
g4
sg5
S'Trump guarantees new ObamaCare plan covers pre-existing conditions, in bid to pass overhaul plan | Fox News'
p58
sg7
S'http://www.foxnews.com/politics/2017/04/30/trump-guarantees-new-obamacare-plan-covers-pre-existing-conditions-in-bid-to-pass-overhaul-plan.html'
p59
sg9
g10
sg11
F0.97692067883953282
sg12
S'2017-04-30T14:48:00.000-04:00'
p60
ssI3192594615
(dp61
g3
g4
sg5
S'Bitter Fight Behind Him, Justice Gorsuch Starts Day With Relish'
p62
sg7
S'https://www.nytimes.com/2017/04/17/us/politics/justice-neil-gorsuch-supreme-court.html'
p63
sg9
S'The New York Times'
p64
sg11
F0.87701036709364955
sg12
S'2017-04-17T13:19:23-04:00'
p65
ssI911645406
(dp66
g3
S'sport'
p67
sg5
S'Mats Zuccarello Urges Rangers to Show Some Desperation in Game 4'
p68
sg7
S'https://www.nytimes.com/2017/04/17/sports/hockey/rangers-canadiens-nhl-playoffs.html'
p69
sg9
S'The New York Times'
p70
sg11
F1
sg12
S'2017-04-17T12:12:08-04:00'
p71
ssI463561791
(dp72
g3
g39
sg5
S'Interest in Social Mission Gains Ground Among Small Companies'
p73
sg7
S'https://www.nytimes.com/2015/04/24/business/dealbook/interest-in-social-mission-gains-ground-among-small-companies.html'
p74
sg9
S'The New York Times'
p75
sg11
F0.99984468422667494
sg12
S'2017-04-17T12:05:45-04:00'
p76
ss.