(dp1
I3810184387
(dp2
S'category'
p3
S'entertain'
p4
sS'title'
p5
S'This Friendly Bear Is a Menace to Ice'
p6
sS'url'
p7
S'https://www.nytimes.com/2017/04/17/dining/ice-shaver-japanese-bear-moma.html'
p8
sS'source'
p9
S'The New York Times'
p10
sS'score'
p11
F0.45153769416062489
sS'date'
p12
S'2017-04-17T13:31:18-04:00'
p13
ssI2957764453
(dp14
g3
S'us'
p15
sg5
S"FBI's Awlaki surveillance footage revealed | Fox News"
p16
sg7
S'http://www.foxnews.com/politics/2017/04/19/fbis-awlaki-surveillance-footage-revealed.html'
p17
sg9
S'FOX'
p18
sg11
F0.99996844467334511
sg12
S'2017-04-19T14:16:00.000-04:00'
p19
ssI3840301258
(dp20
g3
S'sport'
p21
sg5
S'Boston Marathon 2017: Kenyans Sweep the Main Events'
p22
sg7
S'https://www.nytimes.com/2017/04/17/sports/boston-marathon-2017-kenyans-sweep-the-main-events.html'
p23
sg9
S'The New York Times'
p24
sg11
F0.94689653811425034
sg12
S'2017-04-17T12:29:36-04:00'
p25
ssI3841575310
(dp26
g3
S'world'
p27
sg5
S'McMaster says US must be prepared for military operations in North Korea | Fox News'
p28
sg7
S'http://www.foxnews.com/politics/2017/04/30/mcmaster-says-us-must-be-prepared-for-military-operations-in-north-korea.html'
p29
sg9
g18
sg11
F0.99998354751335172
sg12
S'2017-04-30T11:36:00.000-04:00'
p30
ssI3584541970
(dp31
g3
g27
sg5
S'Trump invites controversial Philippines leader Duterte to White House | Fox News'
p32
sg7
S'http://www.foxnews.com/politics/2017/04/30/trump-invites-controversial-philippines-leader-duterte-to-white-house.html'
p33
sg9
g18
sg11
F0.9931460518891192
sg12
S'2017-04-30T15:45:00.000-04:00'
p34
ssI3493810174
(dp35
g3
g4
sg5
S'A Tortilla Favored by Chefs Is Now Available Nationwide'
p36
sg7
S'https://www.nytimes.com/2017/04/17/dining/corn-tortillas-masienda.html'
p37
sg9
S'The New York Times'
p38
sg11
F0.53995963514832035
sg12
S'2017-04-17T13:50:18-04:00'
p39
ssI147769087
(dp40
g3
g27
sg5
S"Bill in Congress would pressure Palestinian gov't to cut off terror-tied payments | Fox News"
p41
sg7
S'http://www.foxnews.com/politics/2017/04/30/bill-in-congress-would-pressure-palestinian-govt-to-cut-off-terror-tied-payments.html'
p42
sg9
g18
sg11
F0.9379602163330496
sg12
S'2017-04-30T16:58:00.000-04:00'
p43
ss.