(dp1
I1
(dp2
S'category'
p3
S'entertain'
p4
sS'title'
p5
S"Andy Karl, the Star of 'Groundhog Day,' Is to Perform on Opening Night"
p6
sS'url'
p7
S'https://www.nytimes.com/2017/04/17/theater/andy-karl-groundhog-day-to-perform-on-opening-night.html'
p8
sS'source'
p9
S'The New York Times'
p10
sS'score'
p11
F0.99599165852248162
sS'date'
p12
S'2017-04-17T13:44:10-04:00'
p13
ssI4
(dp14
g3
S'sport'
p15
sg5
S'Boston Marathon 2017: Kenyans Sweep the Main Events'
p16
sg7
S'https://www.nytimes.com/2017/04/17/sports/boston-marathon-2017-kenyans-sweep-the-main-events.html'
p17
sg9
S'The New York Times'
p18
sg11
F0.94689653811425034
sg12
S'2017-04-17T13:34:12-04:00'
p19
ssI7
(dp20
g3
S'tech'
p21
sg5
S'Tech Roundup: A Busy Week to Come'
p22
sg7
S'https://www.nytimes.com/2017/04/17/technology/facebook-samsung-new-zealand.html'
p23
sg9
S'The New York Times'
p24
sg11
F0.99932101425288911
sg12
S'2017-04-17T12:18:16-04:00'
p25
ssI10
(dp26
g3
S'us'
p27
sg5
S'Bitter Fight Behind Him, Justice Gorsuch Starts Day With Relish'
p28
sg7
S'https://www.nytimes.com/2017/04/17/us/politics/justice-neil-gorsuch-supreme-court.html'
p29
sg9
S'The New York Times'
p30
sg11
F0.87701036709364955
sg12
S'2017-04-17T13:39:01-04:00'
p31
ssI13
(dp32
g3
g4
sg5
S'An Atlanta Theater Faces Criticism for Gay Versions of Bible Stories'
p33
sg7
S'https://www.nytimes.com/2017/04/17/theater/out-front-theater-company-criticism-for-gay-versions-of-bible-the-most-fabulous-story-ever-told.html'
p34
sg9
S'The New York Times'
p35
sg11
F0.99999324909230614
sg12
S'2017-04-17T13:48:26-04:00'
p36
ssI16
(dp37
g3
g4
sg5
S'Red, Ripe and Renegade: Berries That Break All the Rules'
p38
sg7
S'https://www.nytimes.com/2017/04/17/dining/strawberries-harrys-berries-california.html'
p39
sg9
S'The New York Times'
p40
sg11
F0.99999938036588543
sg12
S'2017-04-17T12:42:41-04:00'
p41
ss.