(dp1
I2733280512
(dp2
S'category'
p3
S'entertain'
p4
sS'title'
p5
S'Red, Ripe and Renegade: Berries That Break All the Rules'
p6
sS'url'
p7
S'https://www.nytimes.com/2017/04/17/dining/strawberries-harrys-berries-california.html'
p8
sS'source'
p9
S'The New York Times'
p10
sS'score'
p11
F0.99999938036588543
sS'date'
p12
S'201704171242'
p13
ssI4154246784
(dp14
S'category'
p15
S'entertain'
p16
sS'title'
p17
S"'Returnships' Help Stay-At-Home Moms Get Back to Work - NBC News"
p18
sS'url'
p19
S'http://www.nbcnews.com/better/careers/returnships-help-stay-home-moms-get-back-work-n750651'
p20
sS'source'
p21
S'NBC'
p22
sS'score'
p23
F0.97945909705086387
sS'date'
p24
S'201704261451'
p25
ssI524255745
(dp26
g15
S'world'
p27
sg17
S"Video Shows the Moment the 'Mother of All Bombs' Strikes ISIS in Afghanistan - NBC News"
p28
sg19
S'http://www.nbcnews.com/storyline/isis-terror/video-shows-moment-mother-all-bombs-strikes-isis-afghanistan-n746511'
p29
sg21
g22
sg23
F0.99946728662284789
sg24
S'201704140841'
p30
ssI1208862474
(dp31
g15
g16
sg17
S"Robert Durst Case: Hollywood Producer Lynda Obst's Memory Questioned - NBC News"
p32
sg19
S'http://www.nbcnews.com/storyline/robert-durst/robert-durst-case-hollywood-producer-lynda-obst-s-memory-questioned-n752186'
p33
sg21
g22
sg23
F0.42451481334572067
sg24
S'201704271732'
p34
ssI165330711
(dp35
S'category'
p36
S'us'
p37
sS'title'
p38
S'Ilena Ros-Lehtinen: Longtime Florida rep to retire from Congress | Fox News'
p39
sS'url'
p40
S'http://www.foxnews.com/politics/2017/04/30/ilena-ros-lehtinen-longtime-florida-rep-to-retire-from-congress.html'
p41
sS'source'
p42
S'FOX'
p43
sS'score'
p44
F0.65058764136960856
sS'date'
p45
S'201704301600'
p46
ssI787900305
(dp47
g3
g4
sg5
S"The Chainsmokers Prove They're a Hit on the Album Chart, Too"
p48
sg7
S'https://www.nytimes.com/2017/04/17/arts/music/chainsmokers-memories-billboard-chart.html'
p49
sg9
S'The New York Times'
p50
sg11
F0.95540361873026292
sg12
S'201704171257'
p51
ssI1529685267
(dp52
g36
g37
sg38
S'EPA scrubs climate change information from website | Fox News'
p53
sg40
S'http://www.foxnews.com/politics/2017/04/30/epa-scrubs-climate-change-information-from-website.html'
p54
sg42
g43
sg44
F0.39008803946064646
sg45
S'201704300002'
p55
ssI713122068
(dp56
g15
g27
sg17
S"Trump on North Korea's Kim Jong Un: 'He's a Pretty Smart Cookie' - NBC News"
p57
sg19
S'http://www.nbcnews.com/politics/donald-trump/trump-north-korea-s-kim-jong-un-he-s-pretty-n753006'
p58
sg21
g22
sg23
F0.87057295922094202
sg24
S'201704302422'
p59
ssI4085131671
(dp60
g36
g37
sg38
S'100 Days of Disruption: How Trump rewrote the presidential script | Fox News'
p61
sg40
S'http://www.foxnews.com/politics/2017/04/29/100-days-disruption-how-trump-rewrote-presidential-script.html'
p62
sg42
g43
sg44
F0.5424509461781063
sg45
S'201704290030'
p63
ssI1090020642
(dp64
g15
g27
sg17
S"25 Years After LA Riots, Koreatown Finds Strength in 'Saigu' Legacy - NBC News"
p65
sg19
S'http://www.nbcnews.com/news/asian-america/25-years-after-la-riots-koreatown-finds-strength-saigu-legacy-n749081'
p66
sg21
g22
sg23
F0.91943108600126544
sg24
S'201704250844'
p67
ssI218598435
(dp68
g15
S'us'
p69
sg17
S'100 Days of Civil Rights in the Trump Administration - NBC News'
p70
sg19
S'http://www.nbcnews.com/storyline/president-trumps-first-100-days/100-days-civil-rights-trump-administration-n752536'
p71
sg21
g22
sg23
F0.99970263075313559
sg24
S'201704290917'
p72
ssI2691399972
(dp73
g36
g37
sg38
S'Trump guarantees new ObamaCare plan covers pre-existing conditions, in bid to pass overhaul plan | Fox News'
p74
sg40
S'http://www.foxnews.com/politics/2017/04/30/trump-guarantees-new-obamacare-plan-covers-pre-existing-conditions-in-bid-to-pass-overhaul-plan.html'
p75
sg42
g43
sg44
F0.97692067883953282
sg45
S'201704301448'
p76
ssI3489464232
(dp77
g15
S'opinion'
p78
sg17
S"'Stealthing': Victims Describe Partners Removing Condoms During Sex Without Consent - NBC News"
p79
sg19
S'http://www.nbcnews.com/news/us-news/stealthing-victims-describe-partners-removing-condoms-during-sex-without-consent-n752681'
p80
sg21
g22
sg23
F0.47197895374012971
sg24
S'201704290638'
p81
ssI2943580971
(dp82
g3
g4
sg5
S'Carrot Spirit Adds Verve to Spring Drinks'
p83
sg7
S'https://www.nytimes.com/2017/04/17/dining/boardroom-spirits-carrot-liquor.html'
p84
sg9
S'The New York Times'
p85
sg11
F0.31490384615384603
sg12
S'201704171313'
p86
ssI276076845
(dp87
g15
g27
sg17
S"Mike Flynn's RT Headache Won't Go Away - NBC News"
p88
sg19
S'http://www.nbcnews.com/news/us-news/mike-flynn-s-rt-headache-won-t-go-away-n752216'
p89
sg21
g22
sg23
F0.75860058325726099
sg24
S'201704280734'
p90
ssI2834823222
(dp91
g15
g78
sg17
S'Meet the Press - April 30, 2017 - NBC News'
p92
sg19
S'http://www.nbcnews.com/meet-the-press/meet-press-april-30-2017-n753011'
p93
sg21
g22
sg23
F0.98211245463075214
sg24
S'201704301157'
p94
ssI3192594615
(dp95
g3
S'us'
p96
sg5
S'Bitter Fight Behind Him, Justice Gorsuch Starts Day With Relish'
p97
sg7
S'https://www.nytimes.com/2017/04/17/us/politics/justice-neil-gorsuch-supreme-court.html'
p98
sg9
S'The New York Times'
p99
sg11
F0.87701036709364955
sg12
S'201704171319'
p100
ssI3860065593
(dp101
g15
g78
sg17
S"Promises, Promises: What Trump Said He Would Do But Hasn't - NBC News"
p102
sg19
S'http://www.nbcnews.com/storyline/president-trumps-first-100-days/promises-promises-what-trump-said-he-would-do-hasn-t-n748531'
p103
sg21
g22
sg23
F0.99868941703531577
sg24
S'201704270944'
p104
ssI3373713978
(dp105
g15
g78
sg17
S"Tennessee Bill to Protect 'Natural and Ordinary' Meaning of Words Is Veiled Anti-LGBTQ Law, Opponents Say - NBC News"
p106
sg19
S'http://www.nbcnews.com/feature/nbc-out/tennessee-bill-protect-natural-ordinary-meaning-words-veiled-anti-lgbtq-n752056'
p107
sg21
g22
sg23
F0.78427497263801982
sg24
S'201704272157'
p108
ssI615702282
(dp109
g36
g37
sg38
S"Shutdown Showdown: What we know and what we don't know | Fox News"
p110
sg40
S'http://www.foxnews.com/politics/2017/04/26/shutdown-showdown-what-know-and-what-dont-know.html'
p111
sg42
g43
sg44
F0.99987969125689724
sg45
S'201704260828'
p112
ssI463561791
(dp113
g3
S'business'
p114
sg5
S'Interest in Social Mission Gains Ground Among Small Companies'
p115
sg7
S'https://www.nytimes.com/2015/04/24/business/dealbook/interest-in-social-mission-gains-ground-among-small-companies.html'
p116
sg9
S'The New York Times'
p117
sg11
F0.99984468422667494
sg12
S'201704171205'
p118
ssI904890048
(dp119
g15
g16
sg17
S"Fitbit Murder Case: Richard Dabate Pleads Not Guilty in Wife's Death - NBC News"
p120
sg19
S'http://www.nbcnews.com/news/us-news/fitbit-murder-case-richard-dabate-pleads-not-guilty-wife-s-n752526'
p121
sg21
g22
sg23
F0.99698382637051119
sg24
S'201704291319'
p122
ssI2214158403
(dp123
g15
g27
sg17
S'South Korea Says McMaster Affirms THAAD Funding Deal Unchanged: Official - NBC News'
p124
sg19
S'http://www.nbcnews.com/news/world/south-korea-says-mcmaster-affirms-thaad-funding-deal-unchanged-official-n752946'
p125
sg21
g22
sg23
F0.99999875763618185
sg24
S'201704300420'
p126
ssI517342923
(dp127
g15
g69
sg17
S'Pentagon Investigating Michael Flynn for Foreign Payments - NBC News'
p128
sg19
S'http://www.nbcnews.com/politics/politics-news/pentagon-investigating-former-nsa-head-flynn-foreign-payments-n751876'
p129
sg21
g22
sg23
F0.99909478629873505
sg24
S'201704271931'
p130
ssI757889484
(dp131
g15
g78
sg17
S'Analysis: Has Trump Improved Race Relations in the First 100 Days? - NBC News'
p132
sg19
S'http://www.nbcnews.com/storyline/president-trumps-first-100-days/analysis-has-trump-improved-race-relations-first-100-days-n749926'
p133
sg21
g22
sg23
F0.97419687871101357
sg24
S'201704291311'
p134
ssI1118829858
(dp135
g15
g69
sg17
S'Collins and King: Divides in Washington Reflect Divisions in America - NBC News'
p136
sg19
S'http://www.nbcnews.com/politics/congress/collins-king-divides-washington-reflect-divisions-america-n753001'
p137
sg21
g22
sg23
F0.95702502576765291
sg24
S'201704301148'
p138
ssI3890922327
(dp139
g15
g16
sg17
S'San Antonio Police Officer Answers Noise Complaint With Salsa Dance Move that Goes Viral  - NBC News'
p140
sg19
S'http://www.nbcnews.com/news/latino/san-antonio-police-officer-answers-noise-complaint-salsa-dance-move-n751496'
p141
sg21
g22
sg23
F0.94602990513545482
sg24
S'201704261545'
p142
ssI189389475
(dp143
g15
g69
sg17
S'Trump Drops Opposition to Obamacare Payments to Avoid Government Shutdown - NBC News'
p144
sg19
S'http://www.nbcnews.com/politics/congress/trump-drops-opposition-obamacare-payments-avoid-government-shutdown-n751581'
p145
sg21
g22
sg23
F0.9906215478257856
sg24
S'201704262337'
p146
ssI1409274708
(dp147
g15
g69
sg17
S'China Deports Sandy Phan-Gillis, U.S. Businesswoman Accused of Spying - NBC News'
p148
sg19
S'http://www.nbcnews.com/news/us-news/china-deports-sandy-phan-gillis-u-s-businesswoman-accused-spying-n752876'
p149
sg21
g22
sg23
F0.67343504780931318
sg24
S'201704291842'
p150
ssI3434467797
(dp151
g15
g27
sg17
S'North Korea Test Fire of Ballistic Missile Fails, U.S. Officials Say - NBC News'
p152
sg19
S'http://www.nbcnews.com/news/world/north-korea-test-fires-ballistic-missile-u-s-official-says-n752736'
p153
sg21
g22
sg23
F0.99999104641873704
sg24
S'201704291246'
p154
ssI3681798615
(dp155
g36
S'opinion'
p156
sg38
S"Trump skips Correspondents Dinner, but media's bias can't be ignored | Fox News"
p157
sg40
S'http://www.foxnews.com/opinion/2017/04/30/trump-skips-correspondents-dinner-but-medias-bias-cant-be-ignored.html'
p158
sg42
g43
sg44
F0.53302157212032142
sg45
S'201704300736'
p159
ssI608864832
(dp160
g36
g37
sg38
S'Energy regulator vacancies put $10 billion in pipeline projects in limbo | Fox News'
p161
sg40
S'http://www.foxnews.com/politics/2017/04/29/energy-regulator-vacancies-put-10-billion-in-pipeline-projects-in-limbo.html'
p162
sg42
g43
sg44
F0.97372329231280841
sg45
S'201704291138'
p163
ssI509756004
(dp164
g15
S'sport'
p165
sg17
S'Fans Furious as ESPN Lays Off 100, Including Trent Dilfer and Other Big Names - NBC News'
p166
sg19
S'http://www.nbcnews.com/news/sports/fans-furious-espn-lays-100-including-trent-dilfer-other-big-n751646'
p167
sg21
g22
sg23
F0.98084815111620094
sg24
S'201704261918'
p168
ssI241568091
(dp169
g15
g27
sg17
S'Editorial: Faith Leaders Reflections on Race, 25 Years After The LA Riots - NBC News'
p170
sg19
S'http://www.nbcnews.com/news/nbcblk/editorial-faith-leaders-reflections-race-25-years-after-la-riots-n752636'
p171
sg21
g22
sg23
F0.93318495579380489
sg24
S'201704292400'
p172
ssI2809455708
(dp173
g15
g16
sg17
S'Hollywood Producer Lynda Obst Testifies in Robert Durst Case - NBC News'
p174
sg19
S'http://www.nbcnews.com/storyline/robert-durst/hollywood-producer-lynda-obst-testifies-robert-durst-case-n751656'
p175
sg21
g22
sg23
F0.67339041539600542
sg24
S'201704271049'
p176
ssI2497809885
(dp177
g15
g16
sg17
S'How to Do Pigeon Pose: Master This Stretch for Tight Hips - NBC News'
p178
sg19
S'http://www.nbcnews.com/better/diet-fitness/how-do-pigeon-pose-master-stretch-tight-hips-n750286'
p179
sg21
g22
sg23
F0.40370074958074226
sg24
S'201704261316'
p180
ssI911645406
(dp181
g3
S'sport'
p182
sg5
S'Mats Zuccarello Urges Rangers to Show Some Desperation in Game 4'
p183
sg7
S'https://www.nytimes.com/2017/04/17/sports/hockey/rangers-canadiens-nhl-playoffs.html'
p184
sg9
S'The New York Times'
p185
sg11
F1
sg12
S'201704171212'
p186
ssI4181444448
(dp187
g15
g69
sg17
S'Manhunt for Couple After Carjacking, Deadly Shooting Rampage in LA - NBC News'
p188
sg19
S'http://www.nbcnews.com/news/us-news/manhunt-couple-after-carjacking-deadly-shooting-rampage-la-n753016'
p189
sg21
g22
sg23
F0.42880934403910032
sg24
S'201704302454'
p190
ssI2099715300
(dp191
g15
g69
sg17
S'Communities Work to Build Understanding 25 Years After LA Riots - NBC News'
p192
sg19
S'http://www.nbcnews.com/news/asian-america/communities-work-build-understanding-25-years-after-la-riots-n748591'
p193
sg21
g22
sg23
F0.98116086638987077
sg24
S'201704250844'
p194
ssI1725786597
(dp195
g15
g78
sg17
S'Energy Drinks Worse for Your Heart Than Caffeine Alone: Study - NBC News'
p196
sg19
S'http://www.nbcnews.com/health/health-news/energy-drinks-worse-your-heart-caffeine-alone-study-n751686'
p197
sg21
g22
sg23
F0.93707101069986221
sg24
S'201704261921'
p198
ssI3755331303
(dp199
g15
g27
sg17
S'U.S.-Led Coalition Airstrike Kills 18 Anti-Assad Fighters in Syria: Pentagon - NBC News'
p200
sg19
S'http://www.nbcnews.com/storyline/isis-terror/u-s-led-coalition-airstrike-killed-18-sdf-fighters-syria-n745986'
p201
sg21
g22
sg23
F0.99978225846065172
sg24
S'201704131056'
p202
ssI4217956968
(dp203
g15
g78
sg17
S'Anti-Trump Sentiment Drives Many to Dedicate Weekends to Protests - NBC News'
p204
sg19
S'http://www.nbcnews.com/news/us-news/anti-trump-sentiment-drives-many-dedicate-weekends-protests-n752576'
p205
sg21
g22
sg23
F0.59847414541795796
sg24
S'201704291558'
p206
ssI383916780
(dp207
g15
g16
sg17
S"Syrian Civil War: U.S. Doctors Offer Hope and Healing to 'Lost Generation' - NBC News"
p208
sg19
S'http://www.nbcnews.com/news/world/syrian-civil-war-u-s-doctors-offer-hope-healing-lost-n752986'
p209
sg21
g22
sg23
F0.98800229118637484
sg24
S'201704301048'
p210
ssI601167342
(dp211
g3
g114
sg5
S'Philanthropy Starts After Profits Are Tallied'
p212
sg7
S'https://www.nytimes.com/2015/05/12/world/americas/philanthropy-starts-after-profits-are-tallied.html'
p213
sg9
S'International New York Times'
p214
sg11
F0.979331777996024
sg12
S'201704171206'
p215
ssI3934490991
(dp216
g15
S'business'
p217
sg17
S'A Million Babies Have Been Born in the U.S. With Fertility Help - NBC News'
p218
sg19
S'http://www.nbcnews.com/health/health-news/million-babies-have-been-born-u-s-fertility-help-n752506'
p219
sg21
g22
sg23
F0.96204112565752098
sg24
S'201704282408'
p220
ssI67805040
(dp221
g15
g217
sg17
S'Puerto Rico Oversight Board Approves GDB Liquidation Plan - NBC News'
p222
sg19
S'http://www.nbcnews.com/news/latino/puerto-rico-oversight-board-approves-gdb-liquidation-plan-n752651'
p223
sg21
g22
sg23
F0.99854598796793415
sg24
S'201704281521'
p224
ssI3504060150
(dp225
g15
g69
sg17
S'Trump Names Anti-Abortion Leader Charmaine Yoest to High Post at HHS - NBC News'
p226
sg19
S'http://www.nbcnews.com/news/us-news/trump-names-anti-abortion-leader-charmaine-yoest-high-post-hhs-n752836'
p227
sg21
g22
sg23
F0.9660677757912397
sg24
S'201704291300'
p228
ssI2442655764
(dp229
g15
g78
sg17
S'Trump Touts First 100 Days Record, Slams the Press in Campaign-Style Rally - NBC News'
p230
sg19
S'http://www.nbcnews.com/storyline/president-trumps-first-100-days/trump-touts-first-100-days-record-slams-press-campaign-style-n752916'
p231
sg21
g22
sg23
F0.58467777328165593
sg24
S'201704292358'
p232
ssI3471868884
(dp233
g15
g27
sg17
S'Methodist Court Ruling a Blow for First Openly Lesbian Bishop - NBC News'
p234
sg19
S'http://www.nbcnews.com/feature/nbc-out/methodist-court-ruling-blow-first-openly-lesbian-bishop-n752831'
p235
sg21
g22
sg23
F0.74465522838023612
sg24
S'201704291042'
p236
ss.