(dp1
I1894586432
(dp2
S'category'
p3
S'us'
p4
sS'title'
p5
S'Report: Sebastian Gorka to accept role outside White House | Fox News'
p6
sS'url'
p7
S'http://www.foxnews.com/politics/2017/04/30/report-sebastian-gorka-to-accept-role-outside-white-house.html'
p8
sS'source'
p9
S'FOX'
p10
sS'score'
p11
F0.53806555766566089
sS'date'
p12
S'2017-04-30T16:17:00.000-04:00'
p13
ssI1260690179
(dp14
g3
S'entertain'
p15
sg5
S'Vegan Meringues Made From Aquafaba'
p16
sg7
S'https://www.nytimes.com/2017/04/17/dining/aquafaba-vegan-meringue-shop.html'
p17
sg9
S'The New York Times'
p18
sg11
F0.92541616116998127
sg12
S'2017-04-17T13:03:11-04:00'
p19
ssI3042457829
(dp20
g3
g15
sg5
S"Andy Karl, the Star of 'Groundhog Day,' Is to Perform on Opening Night"
p21
sg7
S'https://www.nytimes.com/2017/04/17/theater/andy-karl-groundhog-day-to-perform-on-opening-night.html'
p22
sg9
S'The New York Times'
p23
sg11
F0.99599165852248162
sg12
S'2017-04-17T13:44:10-04:00'
p24
ssI2187587594
(dp25
g3
g4
sg5
S"Fox News Poll: President Trump's first 100 days getting mixed reviews | Fox News"
p26
sg7
S'http://www.foxnews.com/politics/2017/04/26/fox-news-poll-president-trumps-first-100-days-getting-mixed-reviews.html'
p27
sg9
g10
sg11
F0.52731640847332795
sg12
S'2017-04-26T18:00:00.000-04:00'
p28
ssI4105899692
(dp29
g3
g15
sg5
S"Time to be Honest About the Fear That's Getting in Your Way"
p30
sg7
S'https://www.nytimes.com/2017/04/17/your-money/time-to-be-honest-about-the-fear-thats-getting-in-your-way.html'
p31
sg9
S'The New York Times'
p32
sg11
F0.98326634020066095
sg12
S'2017-04-17T13:39:06-04:00'
p33
ssI688752077
(dp34
g3
g4
sg5
S"Capitol Hill lawmakers finding common ground on $1 trillion plan to keep gov't open | Fox News"
p35
sg7
S'http://www.foxnews.com/politics/2017/04/30/capitol-hill-lawmakers-finding-common-ground-on-1-trillion-plan-to-keep-govt-open.html'
p36
sg9
g10
sg11
F0.58691015054353091
sg12
S'2017-04-30T16:29:00.000-04:00'
p37
ssI24491759
(dp38
g3
S'tech'
p39
sg5
S'Tech Roundup: A Busy Week to Come'
p40
sg7
S'https://www.nytimes.com/2017/04/17/technology/facebook-samsung-new-zealand.html'
p41
sg9
S'The New York Times'
p42
sg11
F0.99932101425288911
sg12
S'2017-04-17T12:17:58-04:00'
p43
ssI1213037906
(dp44
g3
g15
sg5
S'An Atlanta Theater Faces Criticism for Gay Versions of Bible Stories'
p45
sg7
S'https://www.nytimes.com/2017/04/17/theater/out-front-theater-company-criticism-for-gay-versions-of-bible-the-most-fabulous-story-ever-told.html'
p46
sg9
S'The New York Times'
p47
sg11
F0.99999324909230614
sg12
S'2017-04-17T13:48:26-04:00'
p48
ssI550578452
(dp49
g3
g4
sg5
S'Hill Republicans appear closer to passing ObamaCare overhaul, but not close enough | Fox News'
p50
sg7
S'http://www.foxnews.com/politics/2017/04/29/hill-republicans-appear-closer-to-passing-obamacare-overhaul-but-not-close-enough.html'
p51
sg9
g10
sg11
F0.99999879120502178
sg12
S'2017-04-29T15:47:00.000-04:00'
p52
ssI2095327061
(dp53
g3
g4
sg5
S'Insulting Ivanka: Why the media are turning on the first daughter | Fox News'
p54
sg7
S'http://www.foxnews.com/politics/2017/04/27/insulting-ivanka-why-media-are-turning-on-first-daughter.html'
p55
sg9
g10
sg11
F0.74600388279564245
sg12
S'2017-04-27T05:00:00.000-04:00'
p56
ssI928934681
(dp57
g3
S'opinion'
p58
sg5
S"Trump's 100-day cram session | Fox News"
p59
sg7
S'http://www.foxnews.com/politics/2017/04/28/trumps-100-day-cram-session.html'
p60
sg9
g10
sg11
F0.81326620785050341
sg12
S'2017-04-28T14:17:00.000-04:00'
p61
ssI3493863956
(dp62
g3
g58
sg5
S"Host blasts absent Trump at White House Correspondents' Dinner | Fox News"
p63
sg7
S'http://www.foxnews.com/politics/2017/04/30/host-blasts-absent-trump-at-white-house-correspondents-dinner.html'
p64
sg9
g10
sg11
F0.5647092751056253
sg12
S'2017-04-30T01:42:00.000-04:00'
p65
ssI1337536751
(dp66
g3
S'world'
p67
sg5
S'McMaster says US will pay for THAAD anti-missile system in South Korea | Fox News'
p68
sg7
S'http://www.foxnews.com/politics/2017/04/30/mcmaster-says-us-will-pay-for-thaad-anti-missile-system-in-south-korea.html'
p69
sg9
g10
sg11
F0.99691848797611349
sg12
S'2017-04-30T10:05:00.000-04:00'
p70
ssI2084021837
(dp71
g3
g67
sg5
S'The North Korea Paradox: Why There Are No Good Options'
p72
sg7
S'https://www.nytimes.com/2017/04/17/world/asia/north-korea-nuclear-weapons-missiles-sanctions.html'
p73
sg9
S'The New York Times'
p74
sg11
F0.99999608420858266
sg12
S'2017-04-17T13:23:11-04:00'
p75
ssI3770214239
(dp76
g3
g15
sg5
S'Browse Cookbooks in the Lobby of a NoMad Hotel'
p77
sg7
S'https://www.nytimes.com/2017/04/17/dining/kitchen-arts-and-letters-opens-park-south-hotel-nomad.html'
p78
sg9
S'The New York Times'
p79
sg11
F0.88907174332176442
sg12
S'2017-04-17T13:39:26-04:00'
p80
ss.