(dp1
S'world'
p2
(lp3
(I2084021837
(F0.99999608420858266
S'201704171323'
p4
ttp5
asS'business'
p6
(lp7
(I463561791
(F0.99984468422667494
S'201704171205'
p8
ttp9
a(I601167342
(F0.979331777996024
S'201704171206'
p10
ttp11
as.