(dp1
S'entertain'
p2
(lp3
(I3042457829
(F0.99599165852248162
S'201704171344'
p4
ttp5
a(I1260690179
(F0.92541616116998127
S'201704171303'
p6
ttp7
a(I2943580971
(F0.31490384615384603
S'201704171313'
p8
ttp9
a(I787900305
(F0.95540361873026292
S'201704171257'
p10
ttp11
a(I3493810174
(F0.53995963514832035
S'201704171350'
p12
ttp13
a(I3810184387
(F0.45153769416062489
S'201704171331'
p14
ttp15
a(I3770214239
(F0.88907174332176442
S'201704171339'
p16
ttp17
a(I1213037906
(F0.99999324909230614
S'201704171348'
p18
ttp19
a(I2733280512
(F0.99999938036588543
S'201704171242'
p20
ttp21
a(I4105899692
(F0.98326634020066095
S'201704171339'
p22
ttp23
asS'sport'
p24
(lp25
(I3840301258
(F0.94689653811425034
S'201704171229'
p26
ttp27
a(I911645406
(F1
S'201704171212'
p28
ttp29
asS'us'
p30
(lp31
(I3192594615
(F0.87701036709364955
S'201704171319'
p32
ttp33
as.