(dp1
S'entertain'
p2
(lp3
(I1
F0.99599165852248162
tp4
a(I2
F0.92541616116998127
tp5
a(I3
F0.31490384615384603
tp6
a(I5
F0.95540361873026292
tp7
a(I6
F0.53995963514832035
tp8
a(I8
F0.45153769416062489
tp9
a(I11
F0.88907174332176442
tp10
a(I13
F0.99999324909230614
tp11
a(I16
F0.99999938036588543
tp12
a(I17
F0.98326634020066095
tp13
asS'us'
p14
(lp15
(I10
F0.87701036709364955
tp16
asS'business'
p17
(lp18
(I9
F0.99984468422667494
tp19
a(I14
F0.979331777996024
tp20
as.